Certificate:
    Data:
        Version: 3 (0x2)
        Serial Number: 23 (0x17)
        Signature Algorithm: sha256WithRSAEncryption
        Issuer: C=US, ST=California, L=Los Angeles, O=DigiCert Inc, OU=www.digicert.com, CN=DigiCert Global Root CA/emailAddress=www.digicert.com
        Validity
            Not Before: Mar 21 08:58:26 2024 GMT
            Not After : Mar 19 08:58:26 2034 GMT
        Subject: C=US, ST=California, L=Los Angeles, O=DigiCert Inc, OU=www.digicert.com, CN=activity.windows.com/emailAddress=www.digicert.com
        Subject Public Key Info:
            Public Key Algorithm: rsaEncryption
                RSA Public-Key: (1024 bit)
                Modulus:
                    00:ba:ad:4c:09:1a:3c:85:4f:60:d5:93:bc:9e:12:
                    f4:9b:16:e7:8b:d2:28:29:ab:f9:38:99:e1:84:3a:
                    1b:70:6e:a0:5b:ad:f3:4e:65:5c:19:fb:56:89:16:
                    fb:68:36:43:1a:3b:b6:32:4d:63:43:b0:c5:10:69:
                    3d:96:13:7f:aa:e4:74:d4:b3:60:aa:af:5b:c7:56:
                    f6:e1:49:55:d9:92:ba:70:37:73:4c:91:6b:cc:10:
                    8e:58:f2:e2:1b:1b:1e:72:3e:c6:bb:a5:ca:08:d8:
                    bb:23:bb:bf:86:02:de:11:e9:d9:79:6d:60:a6:c6:
                    0c:2c:e3:35:72:f1:76:bf:b5
                Exponent: 65537 (0x10001)
        X509v3 extensions:
            X509v3 Subject Alternative Name: 
                DNS:activity.windows.com
    Signature Algorithm: sha256WithRSAEncryption
         5f:ca:5e:2b:8e:5f:3d:8d:a1:05:8b:de:fb:76:91:57:71:29:
         62:3b:30:89:5f:a5:db:3e:f1:68:ea:aa:29:04:4a:d3:46:f7:
         32:f5:ef:23:15:05:40:61:1d:4d:f9:40:11:4b:51:f6:98:81:
         44:1e:2b:c8:07:b8:a3:59:31:09:e2:10:6d:25:40:29:6c:7b:
         df:c1:e3:6a:cb:dd:1b:a1:b4:e9:60:4f:60:f4:2b:27:ef:46:
         d3:60:cd:fa:4e:ba:10:52:d0:96:96:6f:b8:1b:a8:16:29:6e:
         2b:00:82:ec:77:7d:e2:f0:63:48:d3:96:4f:f1:14:a0:07:b0:
         b8:b2:27:5a:5c:5b:e1:cf:97:f7:14:05:5e:9c:7a:7a:fb:78:
         0d:a3:14:42:38:85:4f:33:dc:09:58:a9:bc:11:ae:36:b8:98:
         7b:b6:49:a5:8c:5e:5c:9c:3b:31:29:44:6d:b8:75:66:31:32:
         b9:a6:fe:8c:5c:3f:96:ef:67:71:a0:96:20:30:30:a3:4f:5a:
         c1:22:52:bb:f8:11:e3:7c:78:51:17:79:9a:06:34:f3:e8:0c:
         b6:c0:aa:c4:85:f9:74:ce:9e:45:0b:3d:3d:a6:77:e3:2c:ed:
         d5:28:3e:97:72:fb:55:a1:db:1e:9f:2b:50:03:42:2d:b8:29:
         b9:2f:0a:a0
-----BEGIN CERTIFICATE-----
MIIDczCCAlugAwIBAgIBFzANBgkqhkiG9w0BAQsFADCBrTELMAkGA1UEBhMCVVMx
EzARBgNVBAgMCkNhbGlmb3JuaWExFDASBgNVBAcMC0xvcyBBbmdlbGVzMRUwEwYD
VQQKDAxEaWdpQ2VydCBJbmMxGTAXBgNVBAsMEHd3dy5kaWdpY2VydC5jb20xIDAe
BgNVBAMMF0RpZ2lDZXJ0IEdsb2JhbCBSb290IENBMR8wHQYJKoZIhvcNAQkBFhB3
d3cuZGlnaWNlcnQuY29tMB4XDTI0MDMyMTA4NTgyNloXDTM0MDMxOTA4NTgyNlow
gaoxCzAJBgNVBAYTAlVTMRMwEQYDVQQIDApDYWxpZm9ybmlhMRQwEgYDVQQHDAtM
b3MgQW5nZWxlczEVMBMGA1UECgwMRGlnaUNlcnQgSW5jMRkwFwYDVQQLDBB3d3cu
ZGlnaWNlcnQuY29tMR0wGwYDVQQDDBRhY3Rpdml0eS53aW5kb3dzLmNvbTEfMB0G
CSqGSIb3DQEJARYQd3d3LmRpZ2ljZXJ0LmNvbTCBnzANBgkqhkiG9w0BAQEFAAOB
jQAwgYkCgYEAuq1MCRo8hU9g1ZO8nhL0mxbni9IoKav5OJnhhDobcG6gW63zTmVc
GftWiRb7aDZDGju2Mk1jQ7DFEGk9lhN/quR01LNgqq9bx1b24UlV2ZK6cDdzTJFr
zBCOWPLiGxsecj7Gu6XKCNi7I7u/hgLeEenZeW1gpsYMLOM1cvF2v7UCAwEAAaMj
MCEwHwYDVR0RBBgwFoIUYWN0aXZpdHkud2luZG93cy5jb20wDQYJKoZIhvcNAQEL
BQADggEBAF/KXiuOXz2NoQWL3vt2kVdxKWI7MIlfpds+8WjqqikEStNG9zL17yMV
BUBhHU35QBFLUfaYgUQeK8gHuKNZMQniEG0lQClse9/B42rL3RuhtOlgT2D0Kyfv
RtNgzfpOuhBS0JaWb7gbqBYpbisAgux3feLwY0jTlk/xFKAHsLiyJ1pcW+HPl/cU
BV6cenr7eA2jFEI4hU8z3AlYqbwRrja4mHu2SaWMXlycOzEpRG24dWYxMrmm/oxc
P5bvZ3GgliAwMKNPWsEiUrv4EeN8eFEXeZoGNPPoDLbAqsSF+XTOnkULPT2md+Ms
7dUoPpdy+1Wh2x6fK1ADQi24KbkvCqA=
-----END CERTIFICATE-----
