Certificate:
    Data:
        Version: 3 (0x2)
        Serial Number: 60 (0x3c)
        Signature Algorithm: sha256WithRSAEncryption
        Issuer: C=US, ST=California, L=Los Angeles, O=DigiCert Inc, OU=www.digicert.com, CN=DigiCert Global Root CA/emailAddress=www.digicert.com
        Validity
            Not Before: Mar 21 09:08:22 2024 GMT
            Not After : Mar 19 09:08:22 2034 GMT
        Subject: C=US, ST=California, L=Los Angeles, O=DigiCert Inc, OU=www.digicert.com, CN=aefd.nelreports.net/emailAddress=www.digicert.com
        Subject Public Key Info:
            Public Key Algorithm: rsaEncryption
                RSA Public-Key: (1024 bit)
                Modulus:
                    00:ba:ad:4c:09:1a:3c:85:4f:60:d5:93:bc:9e:12:
                    f4:9b:16:e7:8b:d2:28:29:ab:f9:38:99:e1:84:3a:
                    1b:70:6e:a0:5b:ad:f3:4e:65:5c:19:fb:56:89:16:
                    fb:68:36:43:1a:3b:b6:32:4d:63:43:b0:c5:10:69:
                    3d:96:13:7f:aa:e4:74:d4:b3:60:aa:af:5b:c7:56:
                    f6:e1:49:55:d9:92:ba:70:37:73:4c:91:6b:cc:10:
                    8e:58:f2:e2:1b:1b:1e:72:3e:c6:bb:a5:ca:08:d8:
                    bb:23:bb:bf:86:02:de:11:e9:d9:79:6d:60:a6:c6:
                    0c:2c:e3:35:72:f1:76:bf:b5
                Exponent: 65537 (0x10001)
        X509v3 extensions:
            X509v3 Subject Alternative Name: 
                DNS:aefd.nelreports.net
    Signature Algorithm: sha256WithRSAEncryption
         ad:a1:c0:58:af:f3:f7:ff:1c:55:09:33:b7:9d:b8:be:7c:e0:
         97:16:ca:53:cd:62:ea:c6:13:8c:2d:96:af:c3:24:44:3a:a9:
         2c:95:fb:d3:66:68:4a:5e:cf:79:a8:cd:56:9c:e6:96:f2:02:
         19:9f:ca:86:05:23:7c:f5:13:ed:53:8c:f4:9f:be:57:8b:65:
         15:b1:44:c0:10:18:95:b7:2f:da:2d:1d:23:18:ae:0c:52:de:
         18:0c:f1:81:d3:76:e3:16:d4:42:c0:4d:b0:94:e7:21:8e:c6:
         e1:e6:9d:85:da:22:4c:27:f3:c7:37:7c:25:23:ab:80:64:18:
         68:0a:38:c7:e6:38:db:a4:f6:97:73:84:d1:85:bd:7e:6c:1d:
         61:53:a4:14:53:51:b8:05:05:7c:93:3f:20:b4:06:de:61:d4:
         f2:f9:7c:7a:85:14:dc:30:f8:36:90:20:6d:dc:58:4d:29:50:
         8a:9a:a4:bc:3d:ac:5f:cf:47:16:f4:77:b5:b0:f7:c6:fb:88:
         14:55:24:42:f7:1e:68:1b:7c:b0:af:f6:fc:88:47:4c:29:b9:
         1a:07:d9:78:58:3c:cb:0a:67:ce:08:8f:95:54:1c:e1:ae:be:
         dd:5e:62:5a:ba:61:a9:0f:3b:c3:ce:a9:d6:82:6b:d4:e2:d4:
         99:a6:e2:5c
-----BEGIN CERTIFICATE-----
MIIDcTCCAlmgAwIBAgIBPDANBgkqhkiG9w0BAQsFADCBrTELMAkGA1UEBhMCVVMx
EzARBgNVBAgMCkNhbGlmb3JuaWExFDASBgNVBAcMC0xvcyBBbmdlbGVzMRUwEwYD
VQQKDAxEaWdpQ2VydCBJbmMxGTAXBgNVBAsMEHd3dy5kaWdpY2VydC5jb20xIDAe
BgNVBAMMF0RpZ2lDZXJ0IEdsb2JhbCBSb290IENBMR8wHQYJKoZIhvcNAQkBFhB3
d3cuZGlnaWNlcnQuY29tMB4XDTI0MDMyMTA5MDgyMloXDTM0MDMxOTA5MDgyMlow
gakxCzAJBgNVBAYTAlVTMRMwEQYDVQQIDApDYWxpZm9ybmlhMRQwEgYDVQQHDAtM
b3MgQW5nZWxlczEVMBMGA1UECgwMRGlnaUNlcnQgSW5jMRkwFwYDVQQLDBB3d3cu
ZGlnaWNlcnQuY29tMRwwGgYDVQQDDBNhZWZkLm5lbHJlcG9ydHMubmV0MR8wHQYJ
KoZIhvcNAQkBFhB3d3cuZGlnaWNlcnQuY29tMIGfMA0GCSqGSIb3DQEBAQUAA4GN
ADCBiQKBgQC6rUwJGjyFT2DVk7yeEvSbFueL0igpq/k4meGEOhtwbqBbrfNOZVwZ
+1aJFvtoNkMaO7YyTWNDsMUQaT2WE3+q5HTUs2Cqr1vHVvbhSVXZkrpwN3NMkWvM
EI5Y8uIbGx5yPsa7pcoI2Lsju7+GAt4R6dl5bWCmxgws4zVy8Xa/tQIDAQABoyIw
IDAeBgNVHREEFzAVghNhZWZkLm5lbHJlcG9ydHMubmV0MA0GCSqGSIb3DQEBCwUA
A4IBAQCtocBYr/P3/xxVCTO3nbi+fOCXFspTzWLqxhOMLZavwyREOqkslfvTZmhK
Xs95qM1WnOaW8gIZn8qGBSN89RPtU4z0n75Xi2UVsUTAEBiVty/aLR0jGK4MUt4Y
DPGB03bjFtRCwE2wlOchjsbh5p2F2iJMJ/PHN3wlI6uAZBhoCjjH5jjbpPaXc4TR
hb1+bB1hU6QUU1G4BQV8kz8gtAbeYdTy+Xx6hRTcMPg2kCBt3FhNKVCKmqS8Paxf
z0cW9He1sPfG+4gUVSRC9x5oG3ywr/b8iEdMKbkaB9l4WDzLCmfOCI+VVBzhrr7d
XmJaumGpDzvDzqnWgmvU4tSZpuJc
-----END CERTIFICATE-----
