Certificate:
    Data:
        Version: 3 (0x2)
        Serial Number: 29 (0x1d)
        Signature Algorithm: sha256WithRSAEncryption
        Issuer: C=US, ST=California, L=Los Angeles, O=DigiCert Inc, OU=www.digicert.com, CN=DigiCert Global Root CA/emailAddress=www.digicert.com
        Validity
            Not Before: Mar 21 09:00:31 2024 GMT
            Not After : Mar 19 09:00:31 2034 GMT
        Subject: C=US, ST=California, L=Los Angeles, O=DigiCert Inc, OU=www.digicert.com, CN=agw.alsc.taobao.com/emailAddress=www.digicert.com
        Subject Public Key Info:
            Public Key Algorithm: rsaEncryption
                RSA Public-Key: (1024 bit)
                Modulus:
                    00:ba:ad:4c:09:1a:3c:85:4f:60:d5:93:bc:9e:12:
                    f4:9b:16:e7:8b:d2:28:29:ab:f9:38:99:e1:84:3a:
                    1b:70:6e:a0:5b:ad:f3:4e:65:5c:19:fb:56:89:16:
                    fb:68:36:43:1a:3b:b6:32:4d:63:43:b0:c5:10:69:
                    3d:96:13:7f:aa:e4:74:d4:b3:60:aa:af:5b:c7:56:
                    f6:e1:49:55:d9:92:ba:70:37:73:4c:91:6b:cc:10:
                    8e:58:f2:e2:1b:1b:1e:72:3e:c6:bb:a5:ca:08:d8:
                    bb:23:bb:bf:86:02:de:11:e9:d9:79:6d:60:a6:c6:
                    0c:2c:e3:35:72:f1:76:bf:b5
                Exponent: 65537 (0x10001)
        X509v3 extensions:
            X509v3 Subject Alternative Name: 
                DNS:agw.alsc.taobao.com
    Signature Algorithm: sha256WithRSAEncryption
         41:39:7d:2a:9e:dd:b7:66:1d:3b:6d:c6:67:13:30:30:9d:e3:
         fa:80:cc:49:af:71:b9:4c:23:cb:c4:f3:1c:a6:b4:0d:38:d4:
         ea:c8:d9:63:a9:fc:55:ac:6b:95:64:2f:9d:4b:6a:c1:71:15:
         57:77:2f:fc:9c:52:db:76:74:c3:d1:45:da:ec:39:4e:3a:ef:
         a0:56:79:f0:2c:b4:9e:04:a2:5f:00:0e:77:6e:f7:41:03:50:
         88:97:f0:7c:d5:4f:46:41:bb:a8:aa:a5:5f:73:c9:82:2f:b0:
         14:2d:8d:65:3a:b1:1e:2e:5f:db:dc:50:a6:98:f7:e8:11:d4:
         25:4e:6a:db:ee:5e:a5:69:72:7f:4f:e1:4d:41:1f:87:64:a2:
         3d:d6:34:f8:98:93:31:41:84:13:35:d5:f7:d5:e2:0e:52:72:
         6c:1b:8a:d0:99:9d:56:a9:81:b4:bb:c9:5b:e6:f7:4b:61:39:
         24:17:b5:c7:d1:ed:cf:05:6d:0d:28:8c:52:c9:9f:63:57:79:
         b0:0a:7d:3e:4e:ff:dc:ee:18:7e:f4:23:74:82:44:35:e4:53:
         99:b3:d8:fb:57:7e:66:4a:bc:85:eb:78:e2:26:98:92:bd:3b:
         8f:11:8b:77:2a:11:96:cb:00:ba:79:91:42:a9:0f:b0:5f:31:
         8f:86:3b:77
-----BEGIN CERTIFICATE-----
MIIDcTCCAlmgAwIBAgIBHTANBgkqhkiG9w0BAQsFADCBrTELMAkGA1UEBhMCVVMx
EzARBgNVBAgMCkNhbGlmb3JuaWExFDASBgNVBAcMC0xvcyBBbmdlbGVzMRUwEwYD
VQQKDAxEaWdpQ2VydCBJbmMxGTAXBgNVBAsMEHd3dy5kaWdpY2VydC5jb20xIDAe
BgNVBAMMF0RpZ2lDZXJ0IEdsb2JhbCBSb290IENBMR8wHQYJKoZIhvcNAQkBFhB3
d3cuZGlnaWNlcnQuY29tMB4XDTI0MDMyMTA5MDAzMVoXDTM0MDMxOTA5MDAzMVow
gakxCzAJBgNVBAYTAlVTMRMwEQYDVQQIDApDYWxpZm9ybmlhMRQwEgYDVQQHDAtM
b3MgQW5nZWxlczEVMBMGA1UECgwMRGlnaUNlcnQgSW5jMRkwFwYDVQQLDBB3d3cu
ZGlnaWNlcnQuY29tMRwwGgYDVQQDDBNhZ3cuYWxzYy50YW9iYW8uY29tMR8wHQYJ
KoZIhvcNAQkBFhB3d3cuZGlnaWNlcnQuY29tMIGfMA0GCSqGSIb3DQEBAQUAA4GN
ADCBiQKBgQC6rUwJGjyFT2DVk7yeEvSbFueL0igpq/k4meGEOhtwbqBbrfNOZVwZ
+1aJFvtoNkMaO7YyTWNDsMUQaT2WE3+q5HTUs2Cqr1vHVvbhSVXZkrpwN3NMkWvM
EI5Y8uIbGx5yPsa7pcoI2Lsju7+GAt4R6dl5bWCmxgws4zVy8Xa/tQIDAQABoyIw
IDAeBgNVHREEFzAVghNhZ3cuYWxzYy50YW9iYW8uY29tMA0GCSqGSIb3DQEBCwUA
A4IBAQBBOX0qnt23Zh07bcZnEzAwneP6gMxJr3G5TCPLxPMcprQNONTqyNljqfxV
rGuVZC+dS2rBcRVXdy/8nFLbdnTD0UXa7DlOOu+gVnnwLLSeBKJfAA53bvdBA1CI
l/B81U9GQbuoqqVfc8mCL7AULY1lOrEeLl/b3FCmmPfoEdQlTmrb7l6laXJ/T+FN
QR+HZKI91jT4mJMxQYQTNdX31eIOUnJsG4rQmZ1WqYG0u8lb5vdLYTkkF7XH0e3P
BW0NKIxSyZ9jV3mwCn0+Tv/c7hh+9CN0gkQ15FOZs9j7V35mSryF63jiJpiSvTuP
EYt3KhGWywC6eZFCqQ+wXzGPhjt3
-----END CERTIFICATE-----
