Certificate:
    Data:
        Version: 3 (0x2)
        Serial Number: 13 (0xd)
        Signature Algorithm: sha256WithRSAEncryption
        Issuer: C=US, ST=California, L=Los Angeles, O=DigiCert Inc, OU=www.digicert.com, CN=DigiCert Global Root CA/emailAddress=www.digicert.com
        Validity
            Not Before: Mar 21 08:57:14 2024 GMT
            Not After : Mar 19 08:57:14 2034 GMT
        Subject: C=US, ST=California, L=Los Angeles, O=DigiCert Inc, OU=www.digicert.com, CN=agw.ele.me/emailAddress=www.digicert.com
        Subject Public Key Info:
            Public Key Algorithm: rsaEncryption
                RSA Public-Key: (1024 bit)
                Modulus:
                    00:ba:ad:4c:09:1a:3c:85:4f:60:d5:93:bc:9e:12:
                    f4:9b:16:e7:8b:d2:28:29:ab:f9:38:99:e1:84:3a:
                    1b:70:6e:a0:5b:ad:f3:4e:65:5c:19:fb:56:89:16:
                    fb:68:36:43:1a:3b:b6:32:4d:63:43:b0:c5:10:69:
                    3d:96:13:7f:aa:e4:74:d4:b3:60:aa:af:5b:c7:56:
                    f6:e1:49:55:d9:92:ba:70:37:73:4c:91:6b:cc:10:
                    8e:58:f2:e2:1b:1b:1e:72:3e:c6:bb:a5:ca:08:d8:
                    bb:23:bb:bf:86:02:de:11:e9:d9:79:6d:60:a6:c6:
                    0c:2c:e3:35:72:f1:76:bf:b5
                Exponent: 65537 (0x10001)
        X509v3 extensions:
            X509v3 Subject Alternative Name: 
                DNS:agw.ele.me
    Signature Algorithm: sha256WithRSAEncryption
         ac:1c:27:9d:fd:72:67:71:b8:f1:7e:98:6c:77:42:7b:dc:1b:
         db:f2:b6:fb:4f:c6:ad:f7:d9:99:fd:49:04:32:78:9a:be:62:
         36:ab:73:56:31:55:d1:ca:5d:99:1c:22:5c:75:03:a7:11:de:
         17:d3:f9:9f:cf:e0:ef:d9:c5:da:52:93:6b:65:56:39:71:ce:
         c3:ec:28:75:cb:73:54:66:18:39:f7:10:bc:d1:3c:29:c9:ca:
         9b:f3:57:12:f2:88:61:51:15:cc:98:54:d3:3e:ff:e6:fd:fc:
         9f:48:ae:a7:18:ed:4a:b0:31:8b:70:e0:d4:cd:6c:64:7b:b5:
         c6:74:cc:15:bd:61:ce:1f:68:50:ec:1f:8a:57:c4:8b:37:80:
         77:f8:95:29:46:88:2a:a8:c6:57:9b:cd:71:a9:a0:5f:a4:96:
         23:a7:80:11:2b:36:8a:ea:72:74:81:5b:66:0e:c1:19:4d:1f:
         e9:73:b3:47:23:27:8f:58:9f:d7:e2:b7:c5:c4:9e:95:fc:20:
         e0:f2:44:36:d8:ce:b0:8d:57:bc:f9:28:4c:16:72:3d:75:44:
         27:d6:47:00:72:b7:45:53:23:99:f1:4a:64:e9:9a:fd:c7:1c:
         23:5a:35:32:b3:33:82:b1:e1:13:f0:5d:bd:88:7a:d4:0c:67:
         5b:61:d4:01
-----BEGIN CERTIFICATE-----
MIIDXzCCAkegAwIBAgIBDTANBgkqhkiG9w0BAQsFADCBrTELMAkGA1UEBhMCVVMx
EzARBgNVBAgMCkNhbGlmb3JuaWExFDASBgNVBAcMC0xvcyBBbmdlbGVzMRUwEwYD
VQQKDAxEaWdpQ2VydCBJbmMxGTAXBgNVBAsMEHd3dy5kaWdpY2VydC5jb20xIDAe
BgNVBAMMF0RpZ2lDZXJ0IEdsb2JhbCBSb290IENBMR8wHQYJKoZIhvcNAQkBFhB3
d3cuZGlnaWNlcnQuY29tMB4XDTI0MDMyMTA4NTcxNFoXDTM0MDMxOTA4NTcxNFow
gaAxCzAJBgNVBAYTAlVTMRMwEQYDVQQIDApDYWxpZm9ybmlhMRQwEgYDVQQHDAtM
b3MgQW5nZWxlczEVMBMGA1UECgwMRGlnaUNlcnQgSW5jMRkwFwYDVQQLDBB3d3cu
ZGlnaWNlcnQuY29tMRMwEQYDVQQDDAphZ3cuZWxlLm1lMR8wHQYJKoZIhvcNAQkB
FhB3d3cuZGlnaWNlcnQuY29tMIGfMA0GCSqGSIb3DQEBAQUAA4GNADCBiQKBgQC6
rUwJGjyFT2DVk7yeEvSbFueL0igpq/k4meGEOhtwbqBbrfNOZVwZ+1aJFvtoNkMa
O7YyTWNDsMUQaT2WE3+q5HTUs2Cqr1vHVvbhSVXZkrpwN3NMkWvMEI5Y8uIbGx5y
Psa7pcoI2Lsju7+GAt4R6dl5bWCmxgws4zVy8Xa/tQIDAQABoxkwFzAVBgNVHREE
DjAMggphZ3cuZWxlLm1lMA0GCSqGSIb3DQEBCwUAA4IBAQCsHCed/XJncbjxfphs
d0J73Bvb8rb7T8at99mZ/UkEMniavmI2q3NWMVXRyl2ZHCJcdQOnEd4X0/mfz+Dv
2cXaUpNrZVY5cc7D7Ch1y3NUZhg59xC80Twpycqb81cS8ohhURXMmFTTPv/m/fyf
SK6nGO1KsDGLcODUzWxke7XGdMwVvWHOH2hQ7B+KV8SLN4B3+JUpRogqqMZXm81x
qaBfpJYjp4ARKzaK6nJ0gVtmDsEZTR/pc7NHIyePWJ/X4rfFxJ6V/CDg8kQ22M6w
jVe8+ShMFnI9dUQn1kcAcrdFUyOZ8Upk6Zr9xxwjWjUyszOCseET8F29iHrUDGdb
YdQB
-----END CERTIFICATE-----
