Certificate:
    Data:
        Version: 3 (0x2)
        Serial Number: 27 (0x1b)
        Signature Algorithm: sha256WithRSAEncryption
        Issuer: C=US, ST=California, L=Los Angeles, O=DigiCert Inc, OU=www.digicert.com, CN=DigiCert Global Root CA/emailAddress=www.digicert.com
        Validity
            Not Before: Mar 21 08:59:31 2024 GMT
            Not After : Mar 19 08:59:31 2034 GMT
        Subject: C=US, ST=California, L=Los Angeles, O=DigiCert Inc, OU=www.digicert.com, CN=aiot.ele.me/emailAddress=www.digicert.com
        Subject Public Key Info:
            Public Key Algorithm: rsaEncryption
                RSA Public-Key: (1024 bit)
                Modulus:
                    00:ba:ad:4c:09:1a:3c:85:4f:60:d5:93:bc:9e:12:
                    f4:9b:16:e7:8b:d2:28:29:ab:f9:38:99:e1:84:3a:
                    1b:70:6e:a0:5b:ad:f3:4e:65:5c:19:fb:56:89:16:
                    fb:68:36:43:1a:3b:b6:32:4d:63:43:b0:c5:10:69:
                    3d:96:13:7f:aa:e4:74:d4:b3:60:aa:af:5b:c7:56:
                    f6:e1:49:55:d9:92:ba:70:37:73:4c:91:6b:cc:10:
                    8e:58:f2:e2:1b:1b:1e:72:3e:c6:bb:a5:ca:08:d8:
                    bb:23:bb:bf:86:02:de:11:e9:d9:79:6d:60:a6:c6:
                    0c:2c:e3:35:72:f1:76:bf:b5
                Exponent: 65537 (0x10001)
        X509v3 extensions:
            X509v3 Subject Alternative Name: 
                DNS:aiot.ele.me
    Signature Algorithm: sha256WithRSAEncryption
         44:29:dc:e8:79:3d:31:c7:42:91:64:30:97:86:4c:88:37:c3:
         c6:bb:5c:02:57:fd:db:63:db:62:48:2e:f4:7a:08:b1:b8:a2:
         bf:d5:6e:0a:4b:a2:9b:36:b4:7d:2d:d1:5f:85:9d:07:8d:91:
         89:de:0e:5e:21:67:f9:69:4a:1f:ab:f4:14:e4:08:8a:5e:d2:
         3f:e1:dd:f4:25:53:25:f3:e9:de:87:45:22:d2:f0:e2:b9:bc:
         90:bc:ca:b6:d0:10:39:49:03:82:ca:50:bf:b2:f9:2b:48:c7:
         2e:cd:0e:82:1e:a8:62:67:06:9a:62:47:ab:79:b6:cd:f8:fa:
         fc:82:20:2e:6a:84:aa:0b:40:ea:41:a0:55:9d:31:cc:4a:9f:
         c8:00:8b:1b:74:58:73:99:55:74:0a:9a:d4:f9:14:1c:d4:e9:
         f7:d5:ae:d7:e6:46:7a:05:f3:c9:71:a2:04:ce:af:60:98:88:
         ea:0c:2a:70:32:22:a4:b4:96:d8:b3:50:92:4b:2e:7d:a9:99:
         07:ee:4d:4c:68:92:a3:13:04:2d:1b:ac:5e:f8:cf:d3:66:a2:
         d0:68:dd:92:c5:2d:e4:c2:6a:75:56:25:85:4b:7f:11:78:d8:
         29:3b:91:94:25:8d:b2:a5:ec:d7:de:e9:c6:99:4f:e5:75:97:
         f7:45:4a:cc
-----BEGIN CERTIFICATE-----
MIIDYTCCAkmgAwIBAgIBGzANBgkqhkiG9w0BAQsFADCBrTELMAkGA1UEBhMCVVMx
EzARBgNVBAgMCkNhbGlmb3JuaWExFDASBgNVBAcMC0xvcyBBbmdlbGVzMRUwEwYD
VQQKDAxEaWdpQ2VydCBJbmMxGTAXBgNVBAsMEHd3dy5kaWdpY2VydC5jb20xIDAe
BgNVBAMMF0RpZ2lDZXJ0IEdsb2JhbCBSb290IENBMR8wHQYJKoZIhvcNAQkBFhB3
d3cuZGlnaWNlcnQuY29tMB4XDTI0MDMyMTA4NTkzMVoXDTM0MDMxOTA4NTkzMVow
gaExCzAJBgNVBAYTAlVTMRMwEQYDVQQIDApDYWxpZm9ybmlhMRQwEgYDVQQHDAtM
b3MgQW5nZWxlczEVMBMGA1UECgwMRGlnaUNlcnQgSW5jMRkwFwYDVQQLDBB3d3cu
ZGlnaWNlcnQuY29tMRQwEgYDVQQDDAthaW90LmVsZS5tZTEfMB0GCSqGSIb3DQEJ
ARYQd3d3LmRpZ2ljZXJ0LmNvbTCBnzANBgkqhkiG9w0BAQEFAAOBjQAwgYkCgYEA
uq1MCRo8hU9g1ZO8nhL0mxbni9IoKav5OJnhhDobcG6gW63zTmVcGftWiRb7aDZD
Gju2Mk1jQ7DFEGk9lhN/quR01LNgqq9bx1b24UlV2ZK6cDdzTJFrzBCOWPLiGxse
cj7Gu6XKCNi7I7u/hgLeEenZeW1gpsYMLOM1cvF2v7UCAwEAAaMaMBgwFgYDVR0R
BA8wDYILYWlvdC5lbGUubWUwDQYJKoZIhvcNAQELBQADggEBAEQp3Oh5PTHHQpFk
MJeGTIg3w8a7XAJX/dtj22JILvR6CLG4or/VbgpLops2tH0t0V+FnQeNkYneDl4h
Z/lpSh+r9BTkCIpe0j/h3fQlUyXz6d6HRSLS8OK5vJC8yrbQEDlJA4LKUL+y+StI
xy7NDoIeqGJnBppiR6t5ts34+vyCIC5qhKoLQOpBoFWdMcxKn8gAixt0WHOZVXQK
mtT5FBzU6ffVrtfmRnoF88lxogTOr2CYiOoMKnAyIqS0ltizUJJLLn2pmQfuTUxo
kqMTBC0brF74z9NmotBo3ZLFLeTCanVWJYVLfxF42Ck7kZQljbKl7Nfe6caZT+V1
l/dFSsw=
-----END CERTIFICATE-----
