Certificate:
    Data:
        Version: 3 (0x2)
        Serial Number: 51 (0x33)
        Signature Algorithm: sha256WithRSAEncryption
        Issuer: C=US, ST=California, L=Los Angeles, O=DigiCert Inc, OU=www.digicert.com, CN=DigiCert Global Root CA/emailAddress=www.digicert.com
        Validity
            Not Before: Mar 21 09:08:20 2024 GMT
            Not After : Mar 19 09:08:20 2034 GMT
        Subject: C=US, ST=California, L=Los Angeles, O=DigiCert Inc, OU=www.digicert.com, CN=api.zhihu.com/emailAddress=www.digicert.com
        Subject Public Key Info:
            Public Key Algorithm: rsaEncryption
                RSA Public-Key: (1024 bit)
                Modulus:
                    00:ba:ad:4c:09:1a:3c:85:4f:60:d5:93:bc:9e:12:
                    f4:9b:16:e7:8b:d2:28:29:ab:f9:38:99:e1:84:3a:
                    1b:70:6e:a0:5b:ad:f3:4e:65:5c:19:fb:56:89:16:
                    fb:68:36:43:1a:3b:b6:32:4d:63:43:b0:c5:10:69:
                    3d:96:13:7f:aa:e4:74:d4:b3:60:aa:af:5b:c7:56:
                    f6:e1:49:55:d9:92:ba:70:37:73:4c:91:6b:cc:10:
                    8e:58:f2:e2:1b:1b:1e:72:3e:c6:bb:a5:ca:08:d8:
                    bb:23:bb:bf:86:02:de:11:e9:d9:79:6d:60:a6:c6:
                    0c:2c:e3:35:72:f1:76:bf:b5
                Exponent: 65537 (0x10001)
        X509v3 extensions:
            X509v3 Subject Alternative Name: 
                DNS:api.zhihu.com
    Signature Algorithm: sha256WithRSAEncryption
         95:7d:73:72:b1:b9:7c:ba:9f:0f:3b:cf:4b:1c:8e:e3:94:9f:
         33:fd:46:28:5e:7b:c7:36:7d:08:d3:0e:64:46:62:db:33:4c:
         0f:a4:2f:61:ad:de:d3:1e:ef:fa:1b:6b:b3:c6:60:4d:be:01:
         b0:4e:41:09:6a:61:65:c0:1f:aa:ae:be:c8:c1:41:10:e3:45:
         e5:41:f0:b6:1f:40:93:58:71:03:2b:52:fe:d4:d2:d3:3a:f8:
         be:97:47:6b:b4:42:f8:e0:ed:59:01:65:a7:5b:f8:04:e9:32:
         aa:b5:29:2f:0a:14:e6:12:63:03:83:03:a9:f5:61:8d:d4:ea:
         a5:4c:e7:38:b7:69:ef:c9:7c:61:66:d0:63:6c:f0:d2:80:b4:
         2a:2a:4c:03:63:a1:19:4a:2c:34:32:ef:1f:5a:b5:67:ba:83:
         77:f3:08:f2:17:f8:cb:d3:36:94:20:8e:6b:39:c7:31:cc:9e:
         2c:dd:67:aa:48:55:8a:91:ea:e5:fe:dc:50:e1:6e:4d:9a:3d:
         f2:02:ea:72:74:fa:8c:9a:2f:dd:ce:b2:fb:56:f9:15:78:41:
         b8:c9:50:bd:c8:10:81:ac:92:8d:30:f9:0c:28:a2:fd:c8:92:
         23:6f:1b:37:d2:d3:26:e1:fa:8c:cd:b8:a4:e1:2a:77:6c:00:
         98:32:0f:45
-----BEGIN CERTIFICATE-----
MIIDZTCCAk2gAwIBAgIBMzANBgkqhkiG9w0BAQsFADCBrTELMAkGA1UEBhMCVVMx
EzARBgNVBAgMCkNhbGlmb3JuaWExFDASBgNVBAcMC0xvcyBBbmdlbGVzMRUwEwYD
VQQKDAxEaWdpQ2VydCBJbmMxGTAXBgNVBAsMEHd3dy5kaWdpY2VydC5jb20xIDAe
BgNVBAMMF0RpZ2lDZXJ0IEdsb2JhbCBSb290IENBMR8wHQYJKoZIhvcNAQkBFhB3
d3cuZGlnaWNlcnQuY29tMB4XDTI0MDMyMTA5MDgyMFoXDTM0MDMxOTA5MDgyMFow
gaMxCzAJBgNVBAYTAlVTMRMwEQYDVQQIDApDYWxpZm9ybmlhMRQwEgYDVQQHDAtM
b3MgQW5nZWxlczEVMBMGA1UECgwMRGlnaUNlcnQgSW5jMRkwFwYDVQQLDBB3d3cu
ZGlnaWNlcnQuY29tMRYwFAYDVQQDDA1hcGkuemhpaHUuY29tMR8wHQYJKoZIhvcN
AQkBFhB3d3cuZGlnaWNlcnQuY29tMIGfMA0GCSqGSIb3DQEBAQUAA4GNADCBiQKB
gQC6rUwJGjyFT2DVk7yeEvSbFueL0igpq/k4meGEOhtwbqBbrfNOZVwZ+1aJFvto
NkMaO7YyTWNDsMUQaT2WE3+q5HTUs2Cqr1vHVvbhSVXZkrpwN3NMkWvMEI5Y8uIb
Gx5yPsa7pcoI2Lsju7+GAt4R6dl5bWCmxgws4zVy8Xa/tQIDAQABoxwwGjAYBgNV
HREEETAPgg1hcGkuemhpaHUuY29tMA0GCSqGSIb3DQEBCwUAA4IBAQCVfXNysbl8
up8PO89LHI7jlJ8z/UYoXnvHNn0I0w5kRmLbM0wPpC9hrd7THu/6G2uzxmBNvgGw
TkEJamFlwB+qrr7IwUEQ40XlQfC2H0CTWHEDK1L+1NLTOvi+l0drtEL44O1ZAWWn
W/gE6TKqtSkvChTmEmMDgwOp9WGN1OqlTOc4t2nvyXxhZtBjbPDSgLQqKkwDY6EZ
Siw0Mu8fWrVnuoN38wjyF/jL0zaUII5rOccxzJ4s3WeqSFWKkerl/txQ4W5Nmj3y
AupydPqMmi/dzrL7VvkVeEG4yVC9yBCBrJKNMPkMKKL9yJIjbxs30tMm4fqMzbik
4Sp3bACYMg9F
-----END CERTIFICATE-----
