Certificate:
    Data:
        Version: 3 (0x2)
        Serial Number: 65 (0x41)
        Signature Algorithm: sha256WithRSAEncryption
        Issuer: C=US, ST=California, L=Los Angeles, O=DigiCert Inc, OU=www.digicert.com, CN=DigiCert Global Root CA/emailAddress=www.digicert.com
        Validity
            Not Before: Mar 21 09:08:25 2024 GMT
            Not After : Mar 19 09:08:25 2034 GMT
        Subject: C=US, ST=California, L=Los Angeles, O=DigiCert Inc, OU=www.digicert.com, CN=apm.zhihu.com/emailAddress=www.digicert.com
        Subject Public Key Info:
            Public Key Algorithm: rsaEncryption
                RSA Public-Key: (1024 bit)
                Modulus:
                    00:ba:ad:4c:09:1a:3c:85:4f:60:d5:93:bc:9e:12:
                    f4:9b:16:e7:8b:d2:28:29:ab:f9:38:99:e1:84:3a:
                    1b:70:6e:a0:5b:ad:f3:4e:65:5c:19:fb:56:89:16:
                    fb:68:36:43:1a:3b:b6:32:4d:63:43:b0:c5:10:69:
                    3d:96:13:7f:aa:e4:74:d4:b3:60:aa:af:5b:c7:56:
                    f6:e1:49:55:d9:92:ba:70:37:73:4c:91:6b:cc:10:
                    8e:58:f2:e2:1b:1b:1e:72:3e:c6:bb:a5:ca:08:d8:
                    bb:23:bb:bf:86:02:de:11:e9:d9:79:6d:60:a6:c6:
                    0c:2c:e3:35:72:f1:76:bf:b5
                Exponent: 65537 (0x10001)
        X509v3 extensions:
            X509v3 Subject Alternative Name: 
                DNS:apm.zhihu.com
    Signature Algorithm: sha256WithRSAEncryption
         73:e6:8a:ca:e6:22:94:31:93:ef:53:0c:91:bb:9a:d8:da:6e:
         75:cd:81:01:69:1b:dd:87:90:b6:3f:7f:f4:6c:00:68:87:0b:
         2d:73:df:75:c8:c8:5c:b7:71:04:73:62:47:94:29:d2:cc:9b:
         63:a6:94:c2:a9:81:98:2d:c0:48:6f:ac:b6:fc:20:eb:c8:58:
         cd:4b:1e:f8:c4:e7:52:60:2a:fe:b6:97:9f:ec:69:51:ba:d5:
         b5:6f:a9:3b:c6:47:d2:6a:0f:f2:a9:7e:bb:b6:b9:eb:3d:f7:
         8d:2c:ca:d7:bd:72:ad:44:d9:77:5c:16:c2:9e:a2:ca:ef:d6:
         9a:ca:3c:fd:4f:81:d7:8d:0f:0c:1e:20:81:c7:59:ee:d4:9a:
         cc:86:12:ed:3a:73:3f:93:ca:33:99:62:ee:4c:7c:03:9b:84:
         42:8e:eb:45:4a:9c:95:72:08:ac:06:01:19:c8:a5:d1:85:4f:
         7e:4b:7a:b1:c0:ab:d8:51:cf:f6:a8:72:8f:26:01:63:a3:98:
         77:b6:39:41:df:df:0d:c3:ab:dc:34:54:25:4d:a0:56:63:ec:
         72:01:af:6e:41:31:69:99:c3:51:69:ba:ff:cf:34:7f:28:12:
         12:9d:51:7e:62:00:0d:23:3a:c6:d6:e7:2d:ac:38:9b:22:20:
         94:e1:5b:df
-----BEGIN CERTIFICATE-----
MIIDZTCCAk2gAwIBAgIBQTANBgkqhkiG9w0BAQsFADCBrTELMAkGA1UEBhMCVVMx
EzARBgNVBAgMCkNhbGlmb3JuaWExFDASBgNVBAcMC0xvcyBBbmdlbGVzMRUwEwYD
VQQKDAxEaWdpQ2VydCBJbmMxGTAXBgNVBAsMEHd3dy5kaWdpY2VydC5jb20xIDAe
BgNVBAMMF0RpZ2lDZXJ0IEdsb2JhbCBSb290IENBMR8wHQYJKoZIhvcNAQkBFhB3
d3cuZGlnaWNlcnQuY29tMB4XDTI0MDMyMTA5MDgyNVoXDTM0MDMxOTA5MDgyNVow
gaMxCzAJBgNVBAYTAlVTMRMwEQYDVQQIDApDYWxpZm9ybmlhMRQwEgYDVQQHDAtM
b3MgQW5nZWxlczEVMBMGA1UECgwMRGlnaUNlcnQgSW5jMRkwFwYDVQQLDBB3d3cu
ZGlnaWNlcnQuY29tMRYwFAYDVQQDDA1hcG0uemhpaHUuY29tMR8wHQYJKoZIhvcN
AQkBFhB3d3cuZGlnaWNlcnQuY29tMIGfMA0GCSqGSIb3DQEBAQUAA4GNADCBiQKB
gQC6rUwJGjyFT2DVk7yeEvSbFueL0igpq/k4meGEOhtwbqBbrfNOZVwZ+1aJFvto
NkMaO7YyTWNDsMUQaT2WE3+q5HTUs2Cqr1vHVvbhSVXZkrpwN3NMkWvMEI5Y8uIb
Gx5yPsa7pcoI2Lsju7+GAt4R6dl5bWCmxgws4zVy8Xa/tQIDAQABoxwwGjAYBgNV
HREEETAPgg1hcG0uemhpaHUuY29tMA0GCSqGSIb3DQEBCwUAA4IBAQBz5orK5iKU
MZPvUwyRu5rY2m51zYEBaRvdh5C2P3/0bABohwstc991yMhct3EEc2JHlCnSzJtj
ppTCqYGYLcBIb6y2/CDryFjNSx74xOdSYCr+tpef7GlRutW1b6k7xkfSag/yqX67
trnrPfeNLMrXvXKtRNl3XBbCnqLK79aayjz9T4HXjQ8MHiCBx1nu1JrMhhLtOnM/
k8ozmWLuTHwDm4RCjutFSpyVcgisBgEZyKXRhU9+S3qxwKvYUc/2qHKPJgFjo5h3
tjlB398Nw6vcNFQlTaBWY+xyAa9uQTFpmcNRabr/zzR/KBISnVF+YgANIzrG1uct
rDibIiCU4Vvf
-----END CERTIFICATE-----
