Certificate:
    Data:
        Version: 3 (0x2)
        Serial Number: 1 (0x1)
        Signature Algorithm: sha256WithRSAEncryption
        Issuer: C=US, ST=California, L=Los Angeles, O=DigiCert Inc, OU=www.digicert.com, CN=DigiCert Global Root CA/emailAddress=www.digicert.com
        Validity
            Not Before: Mar 20 03:35:33 2024 GMT
            Not After : Mar 18 03:35:33 2034 GMT
        Subject: C=US, ST=California, L=Los Angeles, O=DigiCert Inc, OU=www.digicert.com, CN=app-api.shop.ele.me/emailAddress=www.digicert.com
        Subject Public Key Info:
            Public Key Algorithm: rsaEncryption
                RSA Public-Key: (1024 bit)
                Modulus:
                    00:ba:ad:4c:09:1a:3c:85:4f:60:d5:93:bc:9e:12:
                    f4:9b:16:e7:8b:d2:28:29:ab:f9:38:99:e1:84:3a:
                    1b:70:6e:a0:5b:ad:f3:4e:65:5c:19:fb:56:89:16:
                    fb:68:36:43:1a:3b:b6:32:4d:63:43:b0:c5:10:69:
                    3d:96:13:7f:aa:e4:74:d4:b3:60:aa:af:5b:c7:56:
                    f6:e1:49:55:d9:92:ba:70:37:73:4c:91:6b:cc:10:
                    8e:58:f2:e2:1b:1b:1e:72:3e:c6:bb:a5:ca:08:d8:
                    bb:23:bb:bf:86:02:de:11:e9:d9:79:6d:60:a6:c6:
                    0c:2c:e3:35:72:f1:76:bf:b5
                Exponent: 65537 (0x10001)
        X509v3 extensions:
            X509v3 Subject Alternative Name: 
                DNS:app-api.shop.ele.me
    Signature Algorithm: sha256WithRSAEncryption
         05:a1:e3:2a:cf:78:0b:34:d7:e1:78:82:9b:08:2a:66:b8:88:
         a4:d2:14:22:29:d8:2b:9b:fe:6a:0b:46:e6:12:01:83:80:0d:
         84:7b:73:3c:09:ff:19:e4:6e:45:b3:91:45:48:6f:fd:5e:0d:
         f3:41:5a:70:f2:86:1d:1c:02:aa:5d:3e:a4:3b:10:ff:15:ac:
         2b:91:2c:54:c7:96:cf:fb:d7:ad:2e:7c:6f:24:8a:6e:a5:85:
         5a:9b:b6:72:3a:c2:01:37:f0:4d:60:72:86:5d:8e:e1:00:ca:
         e9:8c:69:99:d2:70:85:3f:bc:ea:ea:33:e2:84:0b:f5:6e:15:
         be:07:f5:ad:0e:00:e6:a8:38:10:26:40:39:fa:d1:3a:3d:9b:
         37:d1:26:6c:90:21:e3:c4:e2:4d:d5:fd:92:f2:3d:23:4a:fe:
         c3:cd:f7:29:2a:15:db:65:8c:14:9c:0d:b4:2e:d0:7a:d1:00:
         cb:6a:ec:7a:d3:f8:76:15:36:0a:ba:c4:c2:6f:6a:7f:35:b9:
         c6:08:84:79:dd:f5:48:e3:dc:98:65:a0:5e:6c:99:8d:42:4d:
         f2:59:23:9c:b8:ca:aa:7d:48:36:ef:73:68:65:0c:de:32:97:
         86:b1:da:83:46:f6:e2:41:c5:8f:37:f5:c9:99:a0:d3:ef:d6:
         3f:38:54:82
-----BEGIN CERTIFICATE-----
MIIDcTCCAlmgAwIBAgIBATANBgkqhkiG9w0BAQsFADCBrTELMAkGA1UEBhMCVVMx
EzARBgNVBAgMCkNhbGlmb3JuaWExFDASBgNVBAcMC0xvcyBBbmdlbGVzMRUwEwYD
VQQKDAxEaWdpQ2VydCBJbmMxGTAXBgNVBAsMEHd3dy5kaWdpY2VydC5jb20xIDAe
BgNVBAMMF0RpZ2lDZXJ0IEdsb2JhbCBSb290IENBMR8wHQYJKoZIhvcNAQkBFhB3
d3cuZGlnaWNlcnQuY29tMB4XDTI0MDMyMDAzMzUzM1oXDTM0MDMxODAzMzUzM1ow
gakxCzAJBgNVBAYTAlVTMRMwEQYDVQQIDApDYWxpZm9ybmlhMRQwEgYDVQQHDAtM
b3MgQW5nZWxlczEVMBMGA1UECgwMRGlnaUNlcnQgSW5jMRkwFwYDVQQLDBB3d3cu
ZGlnaWNlcnQuY29tMRwwGgYDVQQDDBNhcHAtYXBpLnNob3AuZWxlLm1lMR8wHQYJ
KoZIhvcNAQkBFhB3d3cuZGlnaWNlcnQuY29tMIGfMA0GCSqGSIb3DQEBAQUAA4GN
ADCBiQKBgQC6rUwJGjyFT2DVk7yeEvSbFueL0igpq/k4meGEOhtwbqBbrfNOZVwZ
+1aJFvtoNkMaO7YyTWNDsMUQaT2WE3+q5HTUs2Cqr1vHVvbhSVXZkrpwN3NMkWvM
EI5Y8uIbGx5yPsa7pcoI2Lsju7+GAt4R6dl5bWCmxgws4zVy8Xa/tQIDAQABoyIw
IDAeBgNVHREEFzAVghNhcHAtYXBpLnNob3AuZWxlLm1lMA0GCSqGSIb3DQEBCwUA
A4IBAQAFoeMqz3gLNNfheIKbCCpmuIik0hQiKdgrm/5qC0bmEgGDgA2Ee3M8Cf8Z
5G5Fs5FFSG/9Xg3zQVpw8oYdHAKqXT6kOxD/FawrkSxUx5bP+9etLnxvJIpupYVa
m7ZyOsIBN/BNYHKGXY7hAMrpjGmZ0nCFP7zq6jPihAv1bhW+B/WtDgDmqDgQJkA5
+tE6PZs30SZskCHjxOJN1f2S8j0jSv7DzfcpKhXbZYwUnA20LtB60QDLaux60/h2
FTYKusTCb2p/NbnGCIR53fVI49yYZaBebJmNQk3yWSOcuMqqfUg273NoZQzeMpeG
sdqDRvbiQcWPN/XJmaDT79Y/OFSC
-----END CERTIFICATE-----
