Certificate:
    Data:
        Version: 3 (0x2)
        Serial Number: 2 (0x2)
        Signature Algorithm: sha256WithRSAEncryption
        Issuer: C=US, ST=California, L=Los Angeles, O=DigiCert Inc, OU=www.digicert.com, CN=DigiCert Global Root CA/emailAddress=www.digicert.com
        Validity
            Not Before: Mar 21 08:56:47 2024 GMT
            Not After : Mar 19 08:56:47 2034 GMT
        Subject: C=US, ST=California, L=Los Angeles, O=DigiCert Inc, OU=www.digicert.com, CN=app-api.shop.ele.me/emailAddress=www.digicert.com
        Subject Public Key Info:
            Public Key Algorithm: rsaEncryption
                RSA Public-Key: (1024 bit)
                Modulus:
                    00:ba:ad:4c:09:1a:3c:85:4f:60:d5:93:bc:9e:12:
                    f4:9b:16:e7:8b:d2:28:29:ab:f9:38:99:e1:84:3a:
                    1b:70:6e:a0:5b:ad:f3:4e:65:5c:19:fb:56:89:16:
                    fb:68:36:43:1a:3b:b6:32:4d:63:43:b0:c5:10:69:
                    3d:96:13:7f:aa:e4:74:d4:b3:60:aa:af:5b:c7:56:
                    f6:e1:49:55:d9:92:ba:70:37:73:4c:91:6b:cc:10:
                    8e:58:f2:e2:1b:1b:1e:72:3e:c6:bb:a5:ca:08:d8:
                    bb:23:bb:bf:86:02:de:11:e9:d9:79:6d:60:a6:c6:
                    0c:2c:e3:35:72:f1:76:bf:b5
                Exponent: 65537 (0x10001)
        X509v3 extensions:
            X509v3 Subject Alternative Name: 
                DNS:app-api.shop.ele.me
    Signature Algorithm: sha256WithRSAEncryption
         8b:ea:7c:24:24:1a:4e:f2:5a:54:e0:d3:9c:90:0a:74:7a:e9:
         e9:d0:05:af:af:d5:62:94:22:62:e7:ec:fb:b2:c1:a0:fc:3c:
         54:27:23:5b:b8:76:a8:38:f1:bb:02:bb:4d:99:5e:8e:03:27:
         19:99:4d:61:c1:9a:a7:d9:29:02:06:76:16:a5:57:50:41:69:
         a5:49:9c:96:72:c3:30:07:69:39:df:73:02:23:53:f7:1d:1d:
         56:e2:70:e6:b2:23:50:6c:24:10:94:1a:09:b0:bf:a2:6d:c2:
         61:f9:be:cf:9f:42:e7:6d:8e:12:b7:f9:b7:b0:24:2f:36:72:
         c1:fe:46:6d:9a:da:07:a2:43:2f:55:c2:fd:02:c4:6b:f1:c1:
         87:fe:68:86:16:3e:a8:76:26:eb:bb:8e:27:d0:30:d4:6c:30:
         6e:c2:54:74:91:39:03:91:f7:10:aa:f5:21:c8:6c:a2:c1:6f:
         34:9b:a7:23:84:c8:6d:61:d9:2c:c7:84:e8:29:64:1f:bd:a2:
         ce:c7:b3:7d:a0:20:65:e4:2e:e3:ab:d3:e0:a4:f5:a3:e7:68:
         3d:c5:6f:31:de:2d:74:d6:bd:64:cb:4e:21:f9:5c:3c:e6:f0:
         fb:52:6a:00:87:06:99:a2:32:2a:d5:a4:ba:9b:53:93:07:9a:
         81:58:c4:fa
-----BEGIN CERTIFICATE-----
MIIDcTCCAlmgAwIBAgIBAjANBgkqhkiG9w0BAQsFADCBrTELMAkGA1UEBhMCVVMx
EzARBgNVBAgMCkNhbGlmb3JuaWExFDASBgNVBAcMC0xvcyBBbmdlbGVzMRUwEwYD
VQQKDAxEaWdpQ2VydCBJbmMxGTAXBgNVBAsMEHd3dy5kaWdpY2VydC5jb20xIDAe
BgNVBAMMF0RpZ2lDZXJ0IEdsb2JhbCBSb290IENBMR8wHQYJKoZIhvcNAQkBFhB3
d3cuZGlnaWNlcnQuY29tMB4XDTI0MDMyMTA4NTY0N1oXDTM0MDMxOTA4NTY0N1ow
gakxCzAJBgNVBAYTAlVTMRMwEQYDVQQIDApDYWxpZm9ybmlhMRQwEgYDVQQHDAtM
b3MgQW5nZWxlczEVMBMGA1UECgwMRGlnaUNlcnQgSW5jMRkwFwYDVQQLDBB3d3cu
ZGlnaWNlcnQuY29tMRwwGgYDVQQDDBNhcHAtYXBpLnNob3AuZWxlLm1lMR8wHQYJ
KoZIhvcNAQkBFhB3d3cuZGlnaWNlcnQuY29tMIGfMA0GCSqGSIb3DQEBAQUAA4GN
ADCBiQKBgQC6rUwJGjyFT2DVk7yeEvSbFueL0igpq/k4meGEOhtwbqBbrfNOZVwZ
+1aJFvtoNkMaO7YyTWNDsMUQaT2WE3+q5HTUs2Cqr1vHVvbhSVXZkrpwN3NMkWvM
EI5Y8uIbGx5yPsa7pcoI2Lsju7+GAt4R6dl5bWCmxgws4zVy8Xa/tQIDAQABoyIw
IDAeBgNVHREEFzAVghNhcHAtYXBpLnNob3AuZWxlLm1lMA0GCSqGSIb3DQEBCwUA
A4IBAQCL6nwkJBpO8lpU4NOckAp0eunp0AWvr9VilCJi5+z7ssGg/DxUJyNbuHao
OPG7ArtNmV6OAycZmU1hwZqn2SkCBnYWpVdQQWmlSZyWcsMwB2k533MCI1P3HR1W
4nDmsiNQbCQQlBoJsL+ibcJh+b7Pn0LnbY4St/m3sCQvNnLB/kZtmtoHokMvVcL9
AsRr8cGH/miGFj6odibru44n0DDUbDBuwlR0kTkDkfcQqvUhyGyiwW80m6cjhMht
Ydksx4ToKWQfvaLOx7N9oCBl5C7jq9PgpPWj52g9xW8x3i101r1ky04h+Vw85vD7
UmoAhwaZojIq1aS6m1OTB5qBWMT6
-----END CERTIFICATE-----
