Certificate:
    Data:
        Version: 3 (0x2)
        Serial Number: 11 (0xb)
        Signature Algorithm: sha256WithRSAEncryption
        Issuer: C=US, ST=California, L=Los Angeles, O=DigiCert Inc, OU=www.digicert.com, CN=DigiCert Global Root CA/emailAddress=www.digicert.com
        Validity
            Not Before: Mar 21 08:57:04 2024 GMT
            Not After : Mar 19 08:57:04 2034 GMT
        Subject: C=US, ST=California, L=Los Angeles, O=DigiCert Inc, OU=www.digicert.com, CN=app-monitor.ele.me/emailAddress=www.digicert.com
        Subject Public Key Info:
            Public Key Algorithm: rsaEncryption
                RSA Public-Key: (1024 bit)
                Modulus:
                    00:ba:ad:4c:09:1a:3c:85:4f:60:d5:93:bc:9e:12:
                    f4:9b:16:e7:8b:d2:28:29:ab:f9:38:99:e1:84:3a:
                    1b:70:6e:a0:5b:ad:f3:4e:65:5c:19:fb:56:89:16:
                    fb:68:36:43:1a:3b:b6:32:4d:63:43:b0:c5:10:69:
                    3d:96:13:7f:aa:e4:74:d4:b3:60:aa:af:5b:c7:56:
                    f6:e1:49:55:d9:92:ba:70:37:73:4c:91:6b:cc:10:
                    8e:58:f2:e2:1b:1b:1e:72:3e:c6:bb:a5:ca:08:d8:
                    bb:23:bb:bf:86:02:de:11:e9:d9:79:6d:60:a6:c6:
                    0c:2c:e3:35:72:f1:76:bf:b5
                Exponent: 65537 (0x10001)
        X509v3 extensions:
            X509v3 Subject Alternative Name: 
                DNS:app-monitor.ele.me
    Signature Algorithm: sha256WithRSAEncryption
         a0:21:3c:0d:16:8e:77:05:83:2a:38:a5:f9:7f:06:21:c8:15:
         69:80:42:b1:c2:e9:64:01:4d:f1:c3:39:f2:89:32:6e:1e:45:
         b2:d6:a5:b8:d1:fb:89:50:64:0e:86:d4:ba:eb:05:20:00:df:
         39:7d:7d:24:fb:c6:7b:22:87:ea:f2:d4:53:2b:35:00:3f:27:
         e3:4f:16:86:ec:71:6a:dc:bd:82:c4:1b:69:de:f1:0b:55:2d:
         4e:a6:9e:a1:a3:24:b4:99:cc:ec:58:34:72:3d:87:12:2f:c2:
         68:31:a5:d0:39:75:8b:b3:e6:b1:a2:39:d2:24:78:be:60:24:
         29:17:63:c1:5a:a6:06:74:60:41:e2:08:8d:ad:8b:a1:62:6c:
         d1:5c:52:40:17:20:c6:1d:df:87:71:58:37:9d:1b:fc:20:85:
         5e:34:6a:a1:43:88:97:d7:3e:5c:61:c8:8b:97:fb:9c:db:c0:
         a9:e2:31:f5:e5:91:72:29:13:a4:b3:62:35:6d:d7:e9:4e:21:
         6d:df:b8:d7:64:31:91:63:04:0f:a8:c5:f6:70:16:d2:d4:fb:
         b0:5a:59:fc:17:9f:86:df:1a:8c:73:9d:b6:76:b9:1e:91:aa:
         ae:88:56:a3:44:7a:48:99:5d:ce:73:c7:d0:eb:d9:e5:2a:44:
         6f:43:9d:59
-----BEGIN CERTIFICATE-----
MIIDbzCCAlegAwIBAgIBCzANBgkqhkiG9w0BAQsFADCBrTELMAkGA1UEBhMCVVMx
EzARBgNVBAgMCkNhbGlmb3JuaWExFDASBgNVBAcMC0xvcyBBbmdlbGVzMRUwEwYD
VQQKDAxEaWdpQ2VydCBJbmMxGTAXBgNVBAsMEHd3dy5kaWdpY2VydC5jb20xIDAe
BgNVBAMMF0RpZ2lDZXJ0IEdsb2JhbCBSb290IENBMR8wHQYJKoZIhvcNAQkBFhB3
d3cuZGlnaWNlcnQuY29tMB4XDTI0MDMyMTA4NTcwNFoXDTM0MDMxOTA4NTcwNFow
gagxCzAJBgNVBAYTAlVTMRMwEQYDVQQIDApDYWxpZm9ybmlhMRQwEgYDVQQHDAtM
b3MgQW5nZWxlczEVMBMGA1UECgwMRGlnaUNlcnQgSW5jMRkwFwYDVQQLDBB3d3cu
ZGlnaWNlcnQuY29tMRswGQYDVQQDDBJhcHAtbW9uaXRvci5lbGUubWUxHzAdBgkq
hkiG9w0BCQEWEHd3dy5kaWdpY2VydC5jb20wgZ8wDQYJKoZIhvcNAQEBBQADgY0A
MIGJAoGBALqtTAkaPIVPYNWTvJ4S9JsW54vSKCmr+TiZ4YQ6G3BuoFut805lXBn7
VokW+2g2Qxo7tjJNY0OwxRBpPZYTf6rkdNSzYKqvW8dW9uFJVdmSunA3c0yRa8wQ
jljy4hsbHnI+xrulygjYuyO7v4YC3hHp2XltYKbGDCzjNXLxdr+1AgMBAAGjITAf
MB0GA1UdEQQWMBSCEmFwcC1tb25pdG9yLmVsZS5tZTANBgkqhkiG9w0BAQsFAAOC
AQEAoCE8DRaOdwWDKjil+X8GIcgVaYBCscLpZAFN8cM58okybh5FstaluNH7iVBk
DobUuusFIADfOX19JPvGeyKH6vLUUys1AD8n408Whuxxaty9gsQbad7xC1UtTqae
oaMktJnM7Fg0cj2HEi/CaDGl0Dl1i7PmsaI50iR4vmAkKRdjwVqmBnRgQeIIja2L
oWJs0VxSQBcgxh3fh3FYN50b/CCFXjRqoUOIl9c+XGHIi5f7nNvAqeIx9eWRcikT
pLNiNW3X6U4hbd+412QxkWMED6jF9nAW0tT7sFpZ/Befht8ajHOdtna5HpGqrohW
o0R6SJldznPH0OvZ5SpEb0OdWQ==
-----END CERTIFICATE-----
