Certificate:
    Data:
        Version: 3 (0x2)
        Serial Number: 8 (0x8)
        Signature Algorithm: sha256WithRSAEncryption
        Issuer: C=US, ST=California, L=Los Angeles, O=DigiCert Inc, OU=www.digicert.com, CN=DigiCert Global Root CA/emailAddress=www.digicert.com
        Validity
            Not Before: Mar 21 06:15:28 2024 GMT
            Not After : Mar 19 06:15:28 2034 GMT
        Subject: C=US, ST=California, L=Los Angeles, O=DigiCert Inc, OU=www.digicert.com, CN=app-monitor.ele.me/emailAddress=www.digicert.com
        Subject Public Key Info:
            Public Key Algorithm: rsaEncryption
                RSA Public-Key: (1024 bit)
                Modulus:
                    00:ba:ad:4c:09:1a:3c:85:4f:60:d5:93:bc:9e:12:
                    f4:9b:16:e7:8b:d2:28:29:ab:f9:38:99:e1:84:3a:
                    1b:70:6e:a0:5b:ad:f3:4e:65:5c:19:fb:56:89:16:
                    fb:68:36:43:1a:3b:b6:32:4d:63:43:b0:c5:10:69:
                    3d:96:13:7f:aa:e4:74:d4:b3:60:aa:af:5b:c7:56:
                    f6:e1:49:55:d9:92:ba:70:37:73:4c:91:6b:cc:10:
                    8e:58:f2:e2:1b:1b:1e:72:3e:c6:bb:a5:ca:08:d8:
                    bb:23:bb:bf:86:02:de:11:e9:d9:79:6d:60:a6:c6:
                    0c:2c:e3:35:72:f1:76:bf:b5
                Exponent: 65537 (0x10001)
        X509v3 extensions:
            X509v3 Subject Alternative Name: 
                DNS:app-monitor.ele.me
    Signature Algorithm: sha256WithRSAEncryption
         bd:ab:17:d6:94:c4:da:ce:52:f7:6d:b4:6a:3d:2b:e7:25:64:
         f7:0a:8f:0e:29:49:fa:15:fc:78:0a:79:4d:21:d8:39:87:1c:
         12:04:12:52:4e:62:5c:8b:6c:96:59:cd:94:d6:88:d3:30:5f:
         f5:ca:84:7c:37:ec:03:27:49:29:8f:a2:f6:fe:94:d1:62:7c:
         92:10:15:02:f8:b0:b9:cd:1c:a6:21:50:26:6d:da:7e:2c:01:
         7d:f7:2a:e9:37:e0:05:85:2f:f8:26:11:2a:79:d0:32:43:1f:
         c9:d6:9d:6d:37:0d:fb:91:37:63:4b:70:06:7d:b7:2e:48:3e:
         6e:66:e9:05:c2:00:f1:18:0e:3d:19:ae:9d:73:6c:6b:e0:92:
         41:af:f0:00:f3:52:e9:25:6a:d2:8f:f8:f2:c7:19:bc:d9:ef:
         86:33:b3:16:6b:c9:53:41:53:b7:50:75:7a:96:36:2d:54:54:
         27:01:85:fa:19:89:9f:1e:ec:aa:e0:f7:1a:9e:eb:b9:4b:85:
         e0:3b:f7:e9:e3:7e:b0:4a:ac:4f:cb:b4:f0:f1:98:49:b1:73:
         3c:f5:ab:16:b3:21:b4:e7:f0:37:10:aa:f0:82:2e:0c:74:08:
         97:a9:35:6b:1f:ae:43:a4:3d:eb:f9:25:ba:24:bf:f3:3f:9d:
         37:54:51:b7
-----BEGIN CERTIFICATE-----
MIIDbzCCAlegAwIBAgIBCDANBgkqhkiG9w0BAQsFADCBrTELMAkGA1UEBhMCVVMx
EzARBgNVBAgMCkNhbGlmb3JuaWExFDASBgNVBAcMC0xvcyBBbmdlbGVzMRUwEwYD
VQQKDAxEaWdpQ2VydCBJbmMxGTAXBgNVBAsMEHd3dy5kaWdpY2VydC5jb20xIDAe
BgNVBAMMF0RpZ2lDZXJ0IEdsb2JhbCBSb290IENBMR8wHQYJKoZIhvcNAQkBFhB3
d3cuZGlnaWNlcnQuY29tMB4XDTI0MDMyMTA2MTUyOFoXDTM0MDMxOTA2MTUyOFow
gagxCzAJBgNVBAYTAlVTMRMwEQYDVQQIDApDYWxpZm9ybmlhMRQwEgYDVQQHDAtM
b3MgQW5nZWxlczEVMBMGA1UECgwMRGlnaUNlcnQgSW5jMRkwFwYDVQQLDBB3d3cu
ZGlnaWNlcnQuY29tMRswGQYDVQQDDBJhcHAtbW9uaXRvci5lbGUubWUxHzAdBgkq
hkiG9w0BCQEWEHd3dy5kaWdpY2VydC5jb20wgZ8wDQYJKoZIhvcNAQEBBQADgY0A
MIGJAoGBALqtTAkaPIVPYNWTvJ4S9JsW54vSKCmr+TiZ4YQ6G3BuoFut805lXBn7
VokW+2g2Qxo7tjJNY0OwxRBpPZYTf6rkdNSzYKqvW8dW9uFJVdmSunA3c0yRa8wQ
jljy4hsbHnI+xrulygjYuyO7v4YC3hHp2XltYKbGDCzjNXLxdr+1AgMBAAGjITAf
MB0GA1UdEQQWMBSCEmFwcC1tb25pdG9yLmVsZS5tZTANBgkqhkiG9w0BAQsFAAOC
AQEAvasX1pTE2s5S9220aj0r5yVk9wqPDilJ+hX8eAp5TSHYOYccEgQSUk5iXIts
llnNlNaI0zBf9cqEfDfsAydJKY+i9v6U0WJ8khAVAviwuc0cpiFQJm3afiwBffcq
6TfgBYUv+CYRKnnQMkMfydadbTcN+5E3Y0twBn23Lkg+bmbpBcIA8RgOPRmunXNs
a+CSQa/wAPNS6SVq0o/48scZvNnvhjOzFmvJU0FTt1B1epY2LVRUJwGF+hmJnx7s
quD3Gp7ruUuF4Dv36eN+sEqsT8u08PGYSbFzPPWrFrMhtOfwNxCq8IIuDHQIl6k1
ax+uQ6Q96/kluiS/8z+dN1RRtw==
-----END CERTIFICATE-----
