Certificate:
    Data:
        Version: 3 (0x2)
        Serial Number: 5 (0x5)
        Signature Algorithm: sha256WithRSAEncryption
        Issuer: C=US, ST=California, L=Los Angeles, O=DigiCert Inc, OU=www.digicert.com, CN=DigiCert Global Root CA/emailAddress=www.digicert.com
        Validity
            Not Before: Mar 21 06:15:04 2024 GMT
            Not After : Mar 19 06:15:04 2034 GMT
        Subject: C=US, ST=California, L=Los Angeles, O=DigiCert Inc, OU=www.digicert.com, CN=app-api.shop.ele.me/emailAddress=www.digicert.com
        Subject Public Key Info:
            Public Key Algorithm: rsaEncryption
                RSA Public-Key: (1024 bit)
                Modulus:
                    00:ba:ad:4c:09:1a:3c:85:4f:60:d5:93:bc:9e:12:
                    f4:9b:16:e7:8b:d2:28:29:ab:f9:38:99:e1:84:3a:
                    1b:70:6e:a0:5b:ad:f3:4e:65:5c:19:fb:56:89:16:
                    fb:68:36:43:1a:3b:b6:32:4d:63:43:b0:c5:10:69:
                    3d:96:13:7f:aa:e4:74:d4:b3:60:aa:af:5b:c7:56:
                    f6:e1:49:55:d9:92:ba:70:37:73:4c:91:6b:cc:10:
                    8e:58:f2:e2:1b:1b:1e:72:3e:c6:bb:a5:ca:08:d8:
                    bb:23:bb:bf:86:02:de:11:e9:d9:79:6d:60:a6:c6:
                    0c:2c:e3:35:72:f1:76:bf:b5
                Exponent: 65537 (0x10001)
        X509v3 extensions:
            X509v3 Subject Alternative Name: 
                DNS:app-api.shop.ele.me
    Signature Algorithm: sha256WithRSAEncryption
         45:26:76:b3:1c:12:5f:fb:28:bc:75:b2:f9:ca:6b:39:ab:55:
         18:7c:d2:61:61:a9:34:77:ec:94:28:ef:90:6a:8e:ee:b2:19:
         48:f2:2e:82:50:7f:21:6b:7c:c7:69:c8:00:50:e0:5c:04:e6:
         15:09:eb:77:b8:ba:e5:85:ef:f8:f9:26:5c:02:17:16:bd:44:
         bf:d7:9c:cb:52:08:c6:07:38:63:4b:00:d9:78:a4:04:c6:db:
         27:95:e4:2b:43:61:d0:01:29:b4:34:b9:5d:ef:da:9d:82:88:
         ef:69:33:49:81:aa:ea:65:9d:8e:c6:18:1d:18:36:aa:26:5e:
         ab:30:6b:8f:7c:2f:e0:a2:50:2e:6e:8e:b6:2e:66:27:49:ed:
         f2:b2:68:c0:67:2d:63:ff:56:81:1e:93:4d:6b:36:86:ca:62:
         2b:d2:65:0e:87:29:32:1d:bc:8f:a5:83:b6:84:79:63:74:e5:
         7d:3d:25:da:5d:9d:f8:6e:02:0b:e2:c0:fe:6e:2e:11:47:a0:
         6f:28:d4:9b:4b:fb:40:ca:b0:9b:c6:9e:9e:d2:b0:32:47:0d:
         44:7b:83:99:d0:6c:1b:ba:9c:ef:78:88:36:db:00:96:49:5e:
         66:ae:01:10:ec:5a:93:c1:ad:7a:d3:bb:51:8f:db:c3:17:04:
         71:55:be:f8
-----BEGIN CERTIFICATE-----
MIIDcTCCAlmgAwIBAgIBBTANBgkqhkiG9w0BAQsFADCBrTELMAkGA1UEBhMCVVMx
EzARBgNVBAgMCkNhbGlmb3JuaWExFDASBgNVBAcMC0xvcyBBbmdlbGVzMRUwEwYD
VQQKDAxEaWdpQ2VydCBJbmMxGTAXBgNVBAsMEHd3dy5kaWdpY2VydC5jb20xIDAe
BgNVBAMMF0RpZ2lDZXJ0IEdsb2JhbCBSb290IENBMR8wHQYJKoZIhvcNAQkBFhB3
d3cuZGlnaWNlcnQuY29tMB4XDTI0MDMyMTA2MTUwNFoXDTM0MDMxOTA2MTUwNFow
gakxCzAJBgNVBAYTAlVTMRMwEQYDVQQIDApDYWxpZm9ybmlhMRQwEgYDVQQHDAtM
b3MgQW5nZWxlczEVMBMGA1UECgwMRGlnaUNlcnQgSW5jMRkwFwYDVQQLDBB3d3cu
ZGlnaWNlcnQuY29tMRwwGgYDVQQDDBNhcHAtYXBpLnNob3AuZWxlLm1lMR8wHQYJ
KoZIhvcNAQkBFhB3d3cuZGlnaWNlcnQuY29tMIGfMA0GCSqGSIb3DQEBAQUAA4GN
ADCBiQKBgQC6rUwJGjyFT2DVk7yeEvSbFueL0igpq/k4meGEOhtwbqBbrfNOZVwZ
+1aJFvtoNkMaO7YyTWNDsMUQaT2WE3+q5HTUs2Cqr1vHVvbhSVXZkrpwN3NMkWvM
EI5Y8uIbGx5yPsa7pcoI2Lsju7+GAt4R6dl5bWCmxgws4zVy8Xa/tQIDAQABoyIw
IDAeBgNVHREEFzAVghNhcHAtYXBpLnNob3AuZWxlLm1lMA0GCSqGSIb3DQEBCwUA
A4IBAQBFJnazHBJf+yi8dbL5yms5q1UYfNJhYak0d+yUKO+Qao7ushlI8i6CUH8h
a3zHacgAUOBcBOYVCet3uLrlhe/4+SZcAhcWvUS/15zLUgjGBzhjSwDZeKQExtsn
leQrQ2HQASm0NLld79qdgojvaTNJgarqZZ2OxhgdGDaqJl6rMGuPfC/golAubo62
LmYnSe3ysmjAZy1j/1aBHpNNazaGymIr0mUOhykyHbyPpYO2hHljdOV9PSXaXZ34
bgIL4sD+bi4RR6BvKNSbS/tAyrCbxp6e0rAyRw1Ee4OZ0GwbupzveIg22wCWSV5m
rgEQ7FqTwa1607tRj9vDFwRxVb74
-----END CERTIFICATE-----
