Certificate:
    Data:
        Version: 3 (0x2)
        Serial Number: 3 (0x3)
        Signature Algorithm: sha256WithRSAEncryption
        Issuer: C=US, ST=California, L=Los Angeles, O=DigiCert Inc, OU=www.digicert.com, CN=DigiCert Global Root CA/emailAddress=www.digicert.com
        Validity
            Not Before: Mar 26 09:57:30 2024 GMT
            Not After : Mar 24 09:57:30 2034 GMT
        Subject: C=US, ST=California, L=Los Angeles, O=DigiCert Inc, OU=www.digicert.com, CN=app-api.shop.ele.me/emailAddress=www.digicert.com
        Subject Public Key Info:
            Public Key Algorithm: rsaEncryption
                RSA Public-Key: (1024 bit)
                Modulus:
                    00:ba:ad:4c:09:1a:3c:85:4f:60:d5:93:bc:9e:12:
                    f4:9b:16:e7:8b:d2:28:29:ab:f9:38:99:e1:84:3a:
                    1b:70:6e:a0:5b:ad:f3:4e:65:5c:19:fb:56:89:16:
                    fb:68:36:43:1a:3b:b6:32:4d:63:43:b0:c5:10:69:
                    3d:96:13:7f:aa:e4:74:d4:b3:60:aa:af:5b:c7:56:
                    f6:e1:49:55:d9:92:ba:70:37:73:4c:91:6b:cc:10:
                    8e:58:f2:e2:1b:1b:1e:72:3e:c6:bb:a5:ca:08:d8:
                    bb:23:bb:bf:86:02:de:11:e9:d9:79:6d:60:a6:c6:
                    0c:2c:e3:35:72:f1:76:bf:b5
                Exponent: 65537 (0x10001)
        X509v3 extensions:
            X509v3 Subject Alternative Name: 
                DNS:app-api.shop.ele.me
    Signature Algorithm: sha256WithRSAEncryption
         7c:b5:c3:3c:43:09:d5:0d:45:55:06:b2:2d:01:7b:38:ee:d0:
         10:39:ab:bd:b3:ae:59:54:fa:5c:0e:c4:50:22:20:74:83:f1:
         5c:37:d4:38:22:4b:19:64:89:7a:3e:22:0a:96:0c:52:83:88:
         c7:9e:af:2d:77:36:7c:e7:5f:12:25:c3:29:a5:72:49:1b:e2:
         8d:a3:1d:75:57:c3:52:61:2f:7c:d1:36:a9:de:22:ae:42:6b:
         14:eb:7c:46:8a:b8:bc:35:c2:a1:a3:89:62:0a:3a:77:e6:2a:
         3c:7b:11:20:32:96:bb:21:d0:ba:dc:f6:7d:91:8a:26:48:06:
         a0:5c:74:1d:c6:42:be:39:86:27:3d:38:b9:4f:4f:8f:43:85:
         be:66:13:80:5b:94:7e:c5:e2:b0:7f:ef:79:66:fb:4b:52:99:
         f6:63:d5:9f:e2:34:a7:a2:26:fc:f9:3b:08:b2:3a:89:21:36:
         f7:bc:d3:64:22:b2:71:45:1a:16:0a:3e:0e:01:d1:b2:9f:56:
         c9:5f:3f:bc:69:ed:46:93:6b:c3:89:5c:64:85:1a:36:43:fc:
         28:a0:58:2d:fe:76:2b:8e:3f:9d:5e:0a:3c:d3:e5:a9:40:22:
         20:ef:68:41:55:00:17:53:67:31:3d:b2:01:ed:3b:b4:4e:e8:
         be:26:d4:19
-----BEGIN CERTIFICATE-----
MIIDcTCCAlmgAwIBAgIBAzANBgkqhkiG9w0BAQsFADCBrTELMAkGA1UEBhMCVVMx
EzARBgNVBAgMCkNhbGlmb3JuaWExFDASBgNVBAcMC0xvcyBBbmdlbGVzMRUwEwYD
VQQKDAxEaWdpQ2VydCBJbmMxGTAXBgNVBAsMEHd3dy5kaWdpY2VydC5jb20xIDAe
BgNVBAMMF0RpZ2lDZXJ0IEdsb2JhbCBSb290IENBMR8wHQYJKoZIhvcNAQkBFhB3
d3cuZGlnaWNlcnQuY29tMB4XDTI0MDMyNjA5NTczMFoXDTM0MDMyNDA5NTczMFow
gakxCzAJBgNVBAYTAlVTMRMwEQYDVQQIDApDYWxpZm9ybmlhMRQwEgYDVQQHDAtM
b3MgQW5nZWxlczEVMBMGA1UECgwMRGlnaUNlcnQgSW5jMRkwFwYDVQQLDBB3d3cu
ZGlnaWNlcnQuY29tMRwwGgYDVQQDDBNhcHAtYXBpLnNob3AuZWxlLm1lMR8wHQYJ
KoZIhvcNAQkBFhB3d3cuZGlnaWNlcnQuY29tMIGfMA0GCSqGSIb3DQEBAQUAA4GN
ADCBiQKBgQC6rUwJGjyFT2DVk7yeEvSbFueL0igpq/k4meGEOhtwbqBbrfNOZVwZ
+1aJFvtoNkMaO7YyTWNDsMUQaT2WE3+q5HTUs2Cqr1vHVvbhSVXZkrpwN3NMkWvM
EI5Y8uIbGx5yPsa7pcoI2Lsju7+GAt4R6dl5bWCmxgws4zVy8Xa/tQIDAQABoyIw
IDAeBgNVHREEFzAVghNhcHAtYXBpLnNob3AuZWxlLm1lMA0GCSqGSIb3DQEBCwUA
A4IBAQB8tcM8QwnVDUVVBrItAXs47tAQOau9s65ZVPpcDsRQIiB0g/FcN9Q4IksZ
ZIl6PiIKlgxSg4jHnq8tdzZ8518SJcMppXJJG+KNox11V8NSYS980Tap3iKuQmsU
63xGiri8NcKho4liCjp35io8exEgMpa7IdC63PZ9kYomSAagXHQdxkK+OYYnPTi5
T0+PQ4W+ZhOAW5R+xeKwf+95ZvtLUpn2Y9Wf4jSnoib8+TsIsjqJITb3vNNkIrJx
RRoWCj4OAdGyn1bJXz+8ae1Gk2vDiVxkhRo2Q/wooFgt/nYrjj+dXgo80+WpQCIg
72hBVQAXU2cxPbIB7Tu0Tui+JtQZ
-----END CERTIFICATE-----
