Certificate:
    Data:
        Version: 3 (0x2)
        Serial Number: 1 (0x1)
        Signature Algorithm: sha256WithRSAEncryption
        Issuer: C=US, ST=California, L=Los Angeles, O=DigiCert Inc, OU=www.digicert.com, CN=DigiCert Global Root CA/emailAddress=www.digicert.com
        Validity
            Not Before: Mar 21 08:56:44 2024 GMT
            Not After : Mar 19 08:56:44 2034 GMT
        Subject: C=US, ST=California, L=Los Angeles, O=DigiCert Inc, OU=www.digicert.com, CN=array804.prod.do.dsp.mp.microsoft.com/emailAddress=www.digicert.com
        Subject Public Key Info:
            Public Key Algorithm: rsaEncryption
                RSA Public-Key: (1024 bit)
                Modulus:
                    00:ba:ad:4c:09:1a:3c:85:4f:60:d5:93:bc:9e:12:
                    f4:9b:16:e7:8b:d2:28:29:ab:f9:38:99:e1:84:3a:
                    1b:70:6e:a0:5b:ad:f3:4e:65:5c:19:fb:56:89:16:
                    fb:68:36:43:1a:3b:b6:32:4d:63:43:b0:c5:10:69:
                    3d:96:13:7f:aa:e4:74:d4:b3:60:aa:af:5b:c7:56:
                    f6:e1:49:55:d9:92:ba:70:37:73:4c:91:6b:cc:10:
                    8e:58:f2:e2:1b:1b:1e:72:3e:c6:bb:a5:ca:08:d8:
                    bb:23:bb:bf:86:02:de:11:e9:d9:79:6d:60:a6:c6:
                    0c:2c:e3:35:72:f1:76:bf:b5
                Exponent: 65537 (0x10001)
        X509v3 extensions:
            X509v3 Subject Alternative Name: 
                DNS:array804.prod.do.dsp.mp.microsoft.com
    Signature Algorithm: sha256WithRSAEncryption
         78:fd:3f:c3:c8:08:28:87:f6:34:fa:96:04:74:cd:5c:96:fc:
         19:e1:1a:46:9e:22:35:dc:af:ed:39:6f:12:5c:6e:f0:85:3c:
         ba:a1:45:f2:e2:9e:fe:df:46:1e:57:52:59:f0:79:ea:5f:bb:
         1c:08:63:20:34:25:d5:90:16:18:27:57:63:2d:18:49:83:9a:
         c1:9f:f4:4d:01:9c:f8:c4:3b:29:02:a1:5e:27:fe:70:52:57:
         d8:af:0a:87:5f:a8:7e:96:1f:9a:a2:d6:fd:cd:b6:2c:80:81:
         3c:a4:9f:3b:10:0c:3a:3a:c0:8b:7a:db:2e:f2:b9:cb:01:ec:
         9f:4a:c5:db:d1:8a:a7:42:61:b8:77:7a:2b:c2:3a:14:0d:19:
         4f:68:71:b7:9e:ac:f7:ff:13:5f:ea:dd:6b:76:ff:22:d5:ae:
         a8:28:b8:b8:89:fc:d0:3b:24:ac:85:4f:89:e8:1c:1f:58:de:
         d8:f0:16:b5:6d:c9:91:f0:fc:35:bf:b4:de:9c:fa:21:6f:16:
         5a:5d:54:2a:07:71:e8:f1:40:46:4d:b3:02:0d:64:e5:9e:dd:
         cb:04:cc:f5:de:45:be:ef:4a:0c:c3:f9:97:92:ae:7c:79:42:
         0a:33:75:55:6b:a7:06:dc:df:2a:87:96:00:00:fd:1b:4f:5e:
         21:3d:ee:f8
-----BEGIN CERTIFICATE-----
MIIDlTCCAn2gAwIBAgIBATANBgkqhkiG9w0BAQsFADCBrTELMAkGA1UEBhMCVVMx
EzARBgNVBAgMCkNhbGlmb3JuaWExFDASBgNVBAcMC0xvcyBBbmdlbGVzMRUwEwYD
VQQKDAxEaWdpQ2VydCBJbmMxGTAXBgNVBAsMEHd3dy5kaWdpY2VydC5jb20xIDAe
BgNVBAMMF0RpZ2lDZXJ0IEdsb2JhbCBSb290IENBMR8wHQYJKoZIhvcNAQkBFhB3
d3cuZGlnaWNlcnQuY29tMB4XDTI0MDMyMTA4NTY0NFoXDTM0MDMxOTA4NTY0NFow
gbsxCzAJBgNVBAYTAlVTMRMwEQYDVQQIDApDYWxpZm9ybmlhMRQwEgYDVQQHDAtM
b3MgQW5nZWxlczEVMBMGA1UECgwMRGlnaUNlcnQgSW5jMRkwFwYDVQQLDBB3d3cu
ZGlnaWNlcnQuY29tMS4wLAYDVQQDDCVhcnJheTgwNC5wcm9kLmRvLmRzcC5tcC5t
aWNyb3NvZnQuY29tMR8wHQYJKoZIhvcNAQkBFhB3d3cuZGlnaWNlcnQuY29tMIGf
MA0GCSqGSIb3DQEBAQUAA4GNADCBiQKBgQC6rUwJGjyFT2DVk7yeEvSbFueL0igp
q/k4meGEOhtwbqBbrfNOZVwZ+1aJFvtoNkMaO7YyTWNDsMUQaT2WE3+q5HTUs2Cq
r1vHVvbhSVXZkrpwN3NMkWvMEI5Y8uIbGx5yPsa7pcoI2Lsju7+GAt4R6dl5bWCm
xgws4zVy8Xa/tQIDAQABozQwMjAwBgNVHREEKTAngiVhcnJheTgwNC5wcm9kLmRv
LmRzcC5tcC5taWNyb3NvZnQuY29tMA0GCSqGSIb3DQEBCwUAA4IBAQB4/T/DyAgo
h/Y0+pYEdM1clvwZ4RpGniI13K/tOW8SXG7whTy6oUXy4p7+30YeV1JZ8HnqX7sc
CGMgNCXVkBYYJ1djLRhJg5rBn/RNAZz4xDspAqFeJ/5wUlfYrwqHX6h+lh+aotb9
zbYsgIE8pJ87EAw6OsCLetsu8rnLAeyfSsXb0YqnQmG4d3orwjoUDRlPaHG3nqz3
/xNf6t1rdv8i1a6oKLi4ifzQOySshU+J6BwfWN7Y8Ba1bcmR8Pw1v7TenPohbxZa
XVQqB3Ho8UBGTbMCDWTlnt3LBMz13kW+70oMw/mXkq58eUIKM3VVa6cG3N8qh5YA
AP0bT14hPe74
-----END CERTIFICATE-----
