Certificate:
    Data:
        Version: 3 (0x2)
        Serial Number: 27 (0x1b)
        Signature Algorithm: sha256WithRSAEncryption
        Issuer: C=US, ST=California, L=Los Angeles, O=DigiCert Inc, OU=www.digicert.com, CN=DigiCert Global Root CA/emailAddress=www.digicert.com
        Validity
            Not Before: Mar 21 06:27:28 2024 GMT
            Not After : Mar 19 06:27:28 2034 GMT
        Subject: C=US, ST=California, L=Los Angeles, O=DigiCert Inc, OU=www.digicert.com, CN=az700632.vo.msecnd.net/emailAddress=www.digicert.com
        Subject Public Key Info:
            Public Key Algorithm: rsaEncryption
                RSA Public-Key: (1024 bit)
                Modulus:
                    00:ba:ad:4c:09:1a:3c:85:4f:60:d5:93:bc:9e:12:
                    f4:9b:16:e7:8b:d2:28:29:ab:f9:38:99:e1:84:3a:
                    1b:70:6e:a0:5b:ad:f3:4e:65:5c:19:fb:56:89:16:
                    fb:68:36:43:1a:3b:b6:32:4d:63:43:b0:c5:10:69:
                    3d:96:13:7f:aa:e4:74:d4:b3:60:aa:af:5b:c7:56:
                    f6:e1:49:55:d9:92:ba:70:37:73:4c:91:6b:cc:10:
                    8e:58:f2:e2:1b:1b:1e:72:3e:c6:bb:a5:ca:08:d8:
                    bb:23:bb:bf:86:02:de:11:e9:d9:79:6d:60:a6:c6:
                    0c:2c:e3:35:72:f1:76:bf:b5
                Exponent: 65537 (0x10001)
        X509v3 extensions:
            X509v3 Subject Alternative Name: 
                DNS:az700632.vo.msecnd.net
    Signature Algorithm: sha256WithRSAEncryption
         1a:02:ea:1b:a0:c5:bc:68:d6:93:ba:1a:7f:21:85:f2:d0:67:
         a8:8d:5b:d4:9d:77:04:dd:ca:b3:9a:5f:75:7d:6c:45:4e:d6:
         b3:f7:8b:cb:56:d3:d3:2d:72:4f:51:96:bb:7c:18:76:f5:7c:
         ac:fc:9f:53:9e:ba:be:c6:a1:36:9d:dd:d2:4a:34:b9:4e:e0:
         41:dd:b8:f6:3b:44:b8:b8:09:2d:28:9a:e0:9d:a0:3d:8a:3f:
         18:d2:f0:69:6e:e8:c4:f9:8e:f1:46:70:02:c2:be:57:a1:0d:
         d0:30:a9:a0:c4:c7:bc:48:37:9c:48:3e:c1:8d:00:25:f0:17:
         b4:c0:9d:53:f2:d1:a8:04:cd:82:28:bc:c2:90:d9:3b:e6:85:
         8c:33:0d:dd:31:f8:8d:1b:c7:63:7e:9b:3a:83:bb:9e:3e:62:
         78:8f:f3:4b:7a:ac:fe:c8:e3:47:e5:23:4f:4b:17:92:7a:98:
         17:ee:4f:11:9e:40:5c:00:02:e1:66:d0:fe:bc:7c:66:d7:92:
         b0:fe:fd:67:5a:7d:c0:90:8f:1b:b6:f6:b3:0f:3c:71:ae:5d:
         5f:41:e1:71:9c:f5:04:46:26:ee:38:fb:6e:a7:ac:ae:bc:21:
         21:ed:df:16:c9:76:b9:72:bc:95:86:e7:e0:0f:75:ca:dc:79:
         15:da:2a:14
-----BEGIN CERTIFICATE-----
MIIDdzCCAl+gAwIBAgIBGzANBgkqhkiG9w0BAQsFADCBrTELMAkGA1UEBhMCVVMx
EzARBgNVBAgMCkNhbGlmb3JuaWExFDASBgNVBAcMC0xvcyBBbmdlbGVzMRUwEwYD
VQQKDAxEaWdpQ2VydCBJbmMxGTAXBgNVBAsMEHd3dy5kaWdpY2VydC5jb20xIDAe
BgNVBAMMF0RpZ2lDZXJ0IEdsb2JhbCBSb290IENBMR8wHQYJKoZIhvcNAQkBFhB3
d3cuZGlnaWNlcnQuY29tMB4XDTI0MDMyMTA2MjcyOFoXDTM0MDMxOTA2MjcyOFow
gawxCzAJBgNVBAYTAlVTMRMwEQYDVQQIDApDYWxpZm9ybmlhMRQwEgYDVQQHDAtM
b3MgQW5nZWxlczEVMBMGA1UECgwMRGlnaUNlcnQgSW5jMRkwFwYDVQQLDBB3d3cu
ZGlnaWNlcnQuY29tMR8wHQYDVQQDDBZhejcwMDYzMi52by5tc2VjbmQubmV0MR8w
HQYJKoZIhvcNAQkBFhB3d3cuZGlnaWNlcnQuY29tMIGfMA0GCSqGSIb3DQEBAQUA
A4GNADCBiQKBgQC6rUwJGjyFT2DVk7yeEvSbFueL0igpq/k4meGEOhtwbqBbrfNO
ZVwZ+1aJFvtoNkMaO7YyTWNDsMUQaT2WE3+q5HTUs2Cqr1vHVvbhSVXZkrpwN3NM
kWvMEI5Y8uIbGx5yPsa7pcoI2Lsju7+GAt4R6dl5bWCmxgws4zVy8Xa/tQIDAQAB
oyUwIzAhBgNVHREEGjAYghZhejcwMDYzMi52by5tc2VjbmQubmV0MA0GCSqGSIb3
DQEBCwUAA4IBAQAaAuoboMW8aNaTuhp/IYXy0GeojVvUnXcE3cqzml91fWxFTtaz
94vLVtPTLXJPUZa7fBh29Xys/J9Tnrq+xqE2nd3SSjS5TuBB3bj2O0S4uAktKJrg
naA9ij8Y0vBpbujE+Y7xRnACwr5XoQ3QMKmgxMe8SDecSD7BjQAl8Be0wJ1T8tGo
BM2CKLzCkNk75oWMMw3dMfiNG8djfps6g7uePmJ4j/NLeqz+yONH5SNPSxeSepgX
7k8RnkBcAALhZtD+vHxm15Kw/v1nWn3AkI8btvazDzxxrl1fQeFxnPUERibuOPtu
p6yuvCEh7d8WyXa5cryVhufgD3XK3HkV2ioU
-----END CERTIFICATE-----
