Certificate:
    Data:
        Version: 3 (0x2)
        Serial Number: 1 (0x1)
        Signature Algorithm: sha256WithRSAEncryption
        Issuer: C=US, ST=California, L=Los Angeles, O=DigiCert Inc, OU=www.digicert.com, CN=DigiCert Global Root CA/emailAddress=www.digicert.com
        Validity
            Not Before: Mar 21 06:14:52 2024 GMT
            Not After : Mar 19 06:14:52 2034 GMT
        Subject: C=US, ST=California, L=Los Angeles, O=DigiCert Inc, OU=www.digicert.com, CN=beacons.gcp.gvt2.com/emailAddress=www.digicert.com
        Subject Public Key Info:
            Public Key Algorithm: rsaEncryption
                RSA Public-Key: (1024 bit)
                Modulus:
                    00:ba:ad:4c:09:1a:3c:85:4f:60:d5:93:bc:9e:12:
                    f4:9b:16:e7:8b:d2:28:29:ab:f9:38:99:e1:84:3a:
                    1b:70:6e:a0:5b:ad:f3:4e:65:5c:19:fb:56:89:16:
                    fb:68:36:43:1a:3b:b6:32:4d:63:43:b0:c5:10:69:
                    3d:96:13:7f:aa:e4:74:d4:b3:60:aa:af:5b:c7:56:
                    f6:e1:49:55:d9:92:ba:70:37:73:4c:91:6b:cc:10:
                    8e:58:f2:e2:1b:1b:1e:72:3e:c6:bb:a5:ca:08:d8:
                    bb:23:bb:bf:86:02:de:11:e9:d9:79:6d:60:a6:c6:
                    0c:2c:e3:35:72:f1:76:bf:b5
                Exponent: 65537 (0x10001)
        X509v3 extensions:
            X509v3 Subject Alternative Name: 
                DNS:beacons.gcp.gvt2.com
    Signature Algorithm: sha256WithRSAEncryption
         1f:be:0d:bc:de:b3:01:b6:b6:b5:25:30:f8:0d:4a:8a:d3:ef:
         78:66:7e:d6:3a:ba:e5:84:12:26:4f:fc:ba:38:ab:a8:f8:d3:
         8f:03:b9:d1:b6:8c:ee:22:15:cf:30:68:c1:a5:06:df:40:2a:
         26:25:39:21:5d:59:59:56:fe:48:5f:1a:37:95:85:dc:f6:84:
         3e:e5:98:56:15:a7:4c:60:8e:d1:a9:a7:76:4d:0e:fc:52:95:
         68:33:1c:bd:dd:cf:69:1b:ab:e6:3c:c8:f7:4a:f5:27:bc:d3:
         03:db:c3:d9:56:97:ff:af:1f:1d:97:39:ef:b5:fd:cf:01:b7:
         1d:09:d5:60:0f:2e:1a:9b:b8:b1:33:51:52:1b:99:fc:0f:da:
         75:78:59:e3:79:09:01:31:27:50:a2:2b:1b:97:ad:86:d6:fd:
         30:dc:aa:2a:d4:eb:9e:ed:23:05:ee:30:f9:e7:e5:1e:fc:76:
         88:56:03:4d:7b:42:f1:3e:8d:25:05:d0:31:b2:b7:27:14:6d:
         80:ca:08:fd:64:bd:81:4b:e1:86:75:10:bf:3b:be:22:bb:ba:
         e1:ba:c7:4f:1b:9e:ad:d8:bb:96:c7:c2:40:e5:ed:9c:99:36:
         35:19:59:d7:35:a0:07:cf:87:c8:fe:0e:f1:b8:c3:15:fb:39:
         c5:69:f3:e6
-----BEGIN CERTIFICATE-----
MIIDczCCAlugAwIBAgIBATANBgkqhkiG9w0BAQsFADCBrTELMAkGA1UEBhMCVVMx
EzARBgNVBAgMCkNhbGlmb3JuaWExFDASBgNVBAcMC0xvcyBBbmdlbGVzMRUwEwYD
VQQKDAxEaWdpQ2VydCBJbmMxGTAXBgNVBAsMEHd3dy5kaWdpY2VydC5jb20xIDAe
BgNVBAMMF0RpZ2lDZXJ0IEdsb2JhbCBSb290IENBMR8wHQYJKoZIhvcNAQkBFhB3
d3cuZGlnaWNlcnQuY29tMB4XDTI0MDMyMTA2MTQ1MloXDTM0MDMxOTA2MTQ1Mlow
gaoxCzAJBgNVBAYTAlVTMRMwEQYDVQQIDApDYWxpZm9ybmlhMRQwEgYDVQQHDAtM
b3MgQW5nZWxlczEVMBMGA1UECgwMRGlnaUNlcnQgSW5jMRkwFwYDVQQLDBB3d3cu
ZGlnaWNlcnQuY29tMR0wGwYDVQQDDBRiZWFjb25zLmdjcC5ndnQyLmNvbTEfMB0G
CSqGSIb3DQEJARYQd3d3LmRpZ2ljZXJ0LmNvbTCBnzANBgkqhkiG9w0BAQEFAAOB
jQAwgYkCgYEAuq1MCRo8hU9g1ZO8nhL0mxbni9IoKav5OJnhhDobcG6gW63zTmVc
GftWiRb7aDZDGju2Mk1jQ7DFEGk9lhN/quR01LNgqq9bx1b24UlV2ZK6cDdzTJFr
zBCOWPLiGxsecj7Gu6XKCNi7I7u/hgLeEenZeW1gpsYMLOM1cvF2v7UCAwEAAaMj
MCEwHwYDVR0RBBgwFoIUYmVhY29ucy5nY3AuZ3Z0Mi5jb20wDQYJKoZIhvcNAQEL
BQADggEBAB++DbzeswG2trUlMPgNSorT73hmftY6uuWEEiZP/Lo4q6j4048DudG2
jO4iFc8waMGlBt9AKiYlOSFdWVlW/khfGjeVhdz2hD7lmFYVp0xgjtGpp3ZNDvxS
lWgzHL3dz2kbq+Y8yPdK9Se80wPbw9lWl/+vHx2XOe+1/c8Btx0J1WAPLhqbuLEz
UVIbmfwP2nV4WeN5CQExJ1CiKxuXrYbW/TDcqirU657tIwXuMPnn5R78dohWA017
QvE+jSUF0DGytycUbYDKCP1kvYFL4YZ1EL87viK7uuG6x08bnq3Yu5bHwkDl7ZyZ
NjUZWdc1oAfPh8j+DvG4wxX7OcVp8+Y=
-----END CERTIFICATE-----
