Certificate:
    Data:
        Version: 3 (0x2)
        Serial Number: 2 (0x2)
        Signature Algorithm: sha256WithRSAEncryption
        Issuer: C=US, ST=California, L=Los Angeles, O=DigiCert Inc, OU=www.digicert.com, CN=DigiCert Global Root CA/emailAddress=www.digicert.com
        Validity
            Not Before: Mar 21 06:14:52 2024 GMT
            Not After : Mar 19 06:14:52 2034 GMT
        Subject: C=US, ST=California, L=Los Angeles, O=DigiCert Inc, OU=www.digicert.com, CN=beacons.gvt2.com/emailAddress=www.digicert.com
        Subject Public Key Info:
            Public Key Algorithm: rsaEncryption
                RSA Public-Key: (1024 bit)
                Modulus:
                    00:ba:ad:4c:09:1a:3c:85:4f:60:d5:93:bc:9e:12:
                    f4:9b:16:e7:8b:d2:28:29:ab:f9:38:99:e1:84:3a:
                    1b:70:6e:a0:5b:ad:f3:4e:65:5c:19:fb:56:89:16:
                    fb:68:36:43:1a:3b:b6:32:4d:63:43:b0:c5:10:69:
                    3d:96:13:7f:aa:e4:74:d4:b3:60:aa:af:5b:c7:56:
                    f6:e1:49:55:d9:92:ba:70:37:73:4c:91:6b:cc:10:
                    8e:58:f2:e2:1b:1b:1e:72:3e:c6:bb:a5:ca:08:d8:
                    bb:23:bb:bf:86:02:de:11:e9:d9:79:6d:60:a6:c6:
                    0c:2c:e3:35:72:f1:76:bf:b5
                Exponent: 65537 (0x10001)
        X509v3 extensions:
            X509v3 Subject Alternative Name: 
                DNS:beacons.gvt2.com
    Signature Algorithm: sha256WithRSAEncryption
         3a:9a:fa:16:bc:11:8a:c9:14:77:2a:f2:e0:44:97:71:84:f9:
         a4:a1:87:30:7f:c9:82:32:ab:3c:b0:35:fa:65:6e:a0:2f:93:
         3c:51:30:cf:e4:63:ef:a7:52:f3:20:fd:8e:3a:5f:93:de:6d:
         81:cf:68:78:3a:ef:9b:96:ee:2b:d7:96:34:d0:a3:f5:a8:ec:
         c4:9f:e7:b6:6b:d1:99:27:71:c2:ca:b8:38:44:3f:51:d7:8f:
         51:07:42:be:7d:03:38:3d:fd:47:b0:d0:3c:09:87:cf:aa:09:
         1b:bf:24:27:d9:56:6b:0c:1b:9f:a9:e7:41:6b:4f:3e:da:64:
         21:76:f8:49:29:ae:57:18:41:3f:76:4d:d6:6e:79:ba:4a:ea:
         a3:8f:c5:9a:59:e8:f4:96:b8:22:34:1b:13:96:80:b1:66:d8:
         9e:3f:a0:19:72:4b:d6:ca:0e:5e:98:bd:d7:9e:85:b6:60:39:
         15:19:28:6f:b1:b7:fe:b3:79:5a:32:66:a4:c2:78:a7:b5:9a:
         4b:db:37:83:26:0e:6d:88:c5:bb:95:4f:4d:c5:8d:76:a7:84:
         f6:48:f4:4b:48:c2:c1:33:d2:56:ae:d5:ca:71:5c:25:73:42:
         d6:50:54:d9:da:ac:e2:d2:01:54:72:96:f6:93:aa:cd:8f:15:
         f1:8a:c8:e7
-----BEGIN CERTIFICATE-----
MIIDazCCAlOgAwIBAgIBAjANBgkqhkiG9w0BAQsFADCBrTELMAkGA1UEBhMCVVMx
EzARBgNVBAgMCkNhbGlmb3JuaWExFDASBgNVBAcMC0xvcyBBbmdlbGVzMRUwEwYD
VQQKDAxEaWdpQ2VydCBJbmMxGTAXBgNVBAsMEHd3dy5kaWdpY2VydC5jb20xIDAe
BgNVBAMMF0RpZ2lDZXJ0IEdsb2JhbCBSb290IENBMR8wHQYJKoZIhvcNAQkBFhB3
d3cuZGlnaWNlcnQuY29tMB4XDTI0MDMyMTA2MTQ1MloXDTM0MDMxOTA2MTQ1Mlow
gaYxCzAJBgNVBAYTAlVTMRMwEQYDVQQIDApDYWxpZm9ybmlhMRQwEgYDVQQHDAtM
b3MgQW5nZWxlczEVMBMGA1UECgwMRGlnaUNlcnQgSW5jMRkwFwYDVQQLDBB3d3cu
ZGlnaWNlcnQuY29tMRkwFwYDVQQDDBBiZWFjb25zLmd2dDIuY29tMR8wHQYJKoZI
hvcNAQkBFhB3d3cuZGlnaWNlcnQuY29tMIGfMA0GCSqGSIb3DQEBAQUAA4GNADCB
iQKBgQC6rUwJGjyFT2DVk7yeEvSbFueL0igpq/k4meGEOhtwbqBbrfNOZVwZ+1aJ
FvtoNkMaO7YyTWNDsMUQaT2WE3+q5HTUs2Cqr1vHVvbhSVXZkrpwN3NMkWvMEI5Y
8uIbGx5yPsa7pcoI2Lsju7+GAt4R6dl5bWCmxgws4zVy8Xa/tQIDAQABox8wHTAb
BgNVHREEFDASghBiZWFjb25zLmd2dDIuY29tMA0GCSqGSIb3DQEBCwUAA4IBAQA6
mvoWvBGKyRR3KvLgRJdxhPmkoYcwf8mCMqs8sDX6ZW6gL5M8UTDP5GPvp1LzIP2O
Ol+T3m2Bz2h4Ou+blu4r15Y00KP1qOzEn+e2a9GZJ3HCyrg4RD9R149RB0K+fQM4
Pf1HsNA8CYfPqgkbvyQn2VZrDBufqedBa08+2mQhdvhJKa5XGEE/dk3Wbnm6Suqj
j8WaWej0lrgiNBsTloCxZtieP6AZckvWyg5emL3XnoW2YDkVGShvsbf+s3laMmak
wnintZpL2zeDJg5tiMW7lU9NxY12p4T2SPRLSMLBM9JWrtXKcVwlc0LWUFTZ2qzi
0gFUcpb2k6rNjxXxisjn
-----END CERTIFICATE-----
