Certificate:
    Data:
        Version: 3 (0x2)
        Serial Number: 34 (0x22)
        Signature Algorithm: sha256WithRSAEncryption
        Issuer: C=US, ST=California, L=Los Angeles, O=DigiCert Inc, OU=www.digicert.com, CN=DigiCert Global Root CA/emailAddress=www.digicert.com
        Validity
            Not Before: Mar 26 09:58:26 2024 GMT
            Not After : Mar 24 09:58:26 2034 GMT
        Subject: C=US, ST=California, L=Los Angeles, O=DigiCert Inc, OU=www.digicert.com, CN=beacons5.gvt2.com/emailAddress=www.digicert.com
        Subject Public Key Info:
            Public Key Algorithm: rsaEncryption
                RSA Public-Key: (1024 bit)
                Modulus:
                    00:ba:ad:4c:09:1a:3c:85:4f:60:d5:93:bc:9e:12:
                    f4:9b:16:e7:8b:d2:28:29:ab:f9:38:99:e1:84:3a:
                    1b:70:6e:a0:5b:ad:f3:4e:65:5c:19:fb:56:89:16:
                    fb:68:36:43:1a:3b:b6:32:4d:63:43:b0:c5:10:69:
                    3d:96:13:7f:aa:e4:74:d4:b3:60:aa:af:5b:c7:56:
                    f6:e1:49:55:d9:92:ba:70:37:73:4c:91:6b:cc:10:
                    8e:58:f2:e2:1b:1b:1e:72:3e:c6:bb:a5:ca:08:d8:
                    bb:23:bb:bf:86:02:de:11:e9:d9:79:6d:60:a6:c6:
                    0c:2c:e3:35:72:f1:76:bf:b5
                Exponent: 65537 (0x10001)
        X509v3 extensions:
            X509v3 Subject Alternative Name: 
                DNS:beacons5.gvt2.com
    Signature Algorithm: sha256WithRSAEncryption
         ae:04:52:0f:7d:e0:79:e3:c7:a2:69:4a:b5:30:90:41:76:4f:
         48:fb:30:e4:6b:48:c5:7a:07:fa:45:80:68:33:70:ed:35:96:
         6f:32:45:2a:63:9a:b6:e1:3e:70:d9:9f:b9:05:fc:cd:be:93:
         d0:d1:af:f2:f8:86:83:34:d6:4b:b7:c1:66:40:12:08:0c:3e:
         40:57:13:96:df:88:23:7a:ef:97:29:d8:bf:3a:d7:82:37:52:
         52:8f:48:b3:05:72:4d:60:c1:44:ee:b8:ad:24:41:9d:d7:c5:
         92:07:02:11:1a:10:c1:9e:fe:4c:bc:25:72:e8:a4:99:3f:1f:
         c2:67:75:ab:eb:49:f3:fc:9c:03:80:a3:01:e7:b0:2b:80:5c:
         65:ce:44:ef:b2:d4:c0:01:98:25:22:5c:c0:39:0f:8f:c1:d7:
         68:32:1a:4b:db:b8:ab:06:47:f5:63:c7:f9:df:4f:fc:cd:47:
         44:0c:2a:dd:8c:8e:02:f7:32:95:72:b9:67:b1:b7:94:ec:a8:
         75:e9:b5:fb:3a:7e:51:58:a8:58:0e:08:72:f0:e8:b2:23:81:
         54:47:00:83:dc:9f:b6:a3:89:bc:a6:e5:30:35:06:b7:4f:9a:
         1a:5b:71:92:93:99:e9:ca:99:19:c7:77:eb:51:d2:dd:3f:ec:
         5d:e2:ba:b5
-----BEGIN CERTIFICATE-----
MIIDbTCCAlWgAwIBAgIBIjANBgkqhkiG9w0BAQsFADCBrTELMAkGA1UEBhMCVVMx
EzARBgNVBAgMCkNhbGlmb3JuaWExFDASBgNVBAcMC0xvcyBBbmdlbGVzMRUwEwYD
VQQKDAxEaWdpQ2VydCBJbmMxGTAXBgNVBAsMEHd3dy5kaWdpY2VydC5jb20xIDAe
BgNVBAMMF0RpZ2lDZXJ0IEdsb2JhbCBSb290IENBMR8wHQYJKoZIhvcNAQkBFhB3
d3cuZGlnaWNlcnQuY29tMB4XDTI0MDMyNjA5NTgyNloXDTM0MDMyNDA5NTgyNlow
gacxCzAJBgNVBAYTAlVTMRMwEQYDVQQIDApDYWxpZm9ybmlhMRQwEgYDVQQHDAtM
b3MgQW5nZWxlczEVMBMGA1UECgwMRGlnaUNlcnQgSW5jMRkwFwYDVQQLDBB3d3cu
ZGlnaWNlcnQuY29tMRowGAYDVQQDDBFiZWFjb25zNS5ndnQyLmNvbTEfMB0GCSqG
SIb3DQEJARYQd3d3LmRpZ2ljZXJ0LmNvbTCBnzANBgkqhkiG9w0BAQEFAAOBjQAw
gYkCgYEAuq1MCRo8hU9g1ZO8nhL0mxbni9IoKav5OJnhhDobcG6gW63zTmVcGftW
iRb7aDZDGju2Mk1jQ7DFEGk9lhN/quR01LNgqq9bx1b24UlV2ZK6cDdzTJFrzBCO
WPLiGxsecj7Gu6XKCNi7I7u/hgLeEenZeW1gpsYMLOM1cvF2v7UCAwEAAaMgMB4w
HAYDVR0RBBUwE4IRYmVhY29uczUuZ3Z0Mi5jb20wDQYJKoZIhvcNAQELBQADggEB
AK4EUg994Hnjx6JpSrUwkEF2T0j7MORrSMV6B/pFgGgzcO01lm8yRSpjmrbhPnDZ
n7kF/M2+k9DRr/L4hoM01ku3wWZAEggMPkBXE5bfiCN675cp2L8614I3UlKPSLMF
ck1gwUTuuK0kQZ3XxZIHAhEaEMGe/ky8JXLopJk/H8JndavrSfP8nAOAowHnsCuA
XGXORO+y1MABmCUiXMA5D4/B12gyGkvbuKsGR/Vjx/nfT/zNR0QMKt2MjgL3MpVy
uWext5TsqHXptfs6flFYqFgOCHLw6LIjgVRHAIPcn7ajibym5TA1BrdPmhpbcZKT
menKmRnHd+tR0t0/7F3iurU=
-----END CERTIFICATE-----
