Certificate:
    Data:
        Version: 3 (0x2)
        Serial Number: 13 (0xd)
        Signature Algorithm: sha256WithRSAEncryption
        Issuer: C=US, ST=California, L=Los Angeles, O=DigiCert Inc, OU=www.digicert.com, CN=DigiCert Global Root CA/emailAddress=www.digicert.com
        Validity
            Not Before: Mar 26 09:57:51 2024 GMT
            Not After : Mar 24 09:57:51 2034 GMT
        Subject: C=US, ST=California, L=Los Angeles, O=DigiCert Inc, OU=www.digicert.com, CN=catfront.dianping.com/emailAddress=www.digicert.com
        Subject Public Key Info:
            Public Key Algorithm: rsaEncryption
                RSA Public-Key: (1024 bit)
                Modulus:
                    00:ba:ad:4c:09:1a:3c:85:4f:60:d5:93:bc:9e:12:
                    f4:9b:16:e7:8b:d2:28:29:ab:f9:38:99:e1:84:3a:
                    1b:70:6e:a0:5b:ad:f3:4e:65:5c:19:fb:56:89:16:
                    fb:68:36:43:1a:3b:b6:32:4d:63:43:b0:c5:10:69:
                    3d:96:13:7f:aa:e4:74:d4:b3:60:aa:af:5b:c7:56:
                    f6:e1:49:55:d9:92:ba:70:37:73:4c:91:6b:cc:10:
                    8e:58:f2:e2:1b:1b:1e:72:3e:c6:bb:a5:ca:08:d8:
                    bb:23:bb:bf:86:02:de:11:e9:d9:79:6d:60:a6:c6:
                    0c:2c:e3:35:72:f1:76:bf:b5
                Exponent: 65537 (0x10001)
        X509v3 extensions:
            X509v3 Subject Alternative Name: 
                DNS:catfront.dianping.com
    Signature Algorithm: sha256WithRSAEncryption
         9d:47:1e:c4:b5:d8:99:f8:2d:5d:f5:b4:34:86:df:7b:1c:ec:
         d2:5c:a4:34:be:50:87:8e:63:4e:e0:ee:83:1a:c3:d6:94:33:
         a2:ed:7c:5d:b4:07:7c:41:c4:95:0f:8c:a7:2e:ea:13:0f:cc:
         a2:36:d7:3c:f2:35:5f:8c:16:5f:a5:53:f9:b2:e1:8a:a4:a4:
         7f:5f:70:14:e9:3c:9d:f0:9a:ee:3f:7e:30:3c:fd:3b:7f:0e:
         a7:1d:c0:5f:74:b6:16:10:9c:b3:de:92:66:32:77:34:06:77:
         de:55:c4:e2:10:fe:f5:09:6a:d9:f9:81:85:96:88:d6:69:ce:
         91:70:33:bc:0a:33:14:26:4e:63:57:54:e1:a3:9d:92:57:60:
         0f:88:bb:d5:ff:9c:17:40:8e:11:4e:b9:9f:83:71:d3:af:00:
         51:48:7f:f3:59:b2:9e:13:aa:0f:ad:d3:0c:44:3d:c8:49:43:
         6e:86:a7:59:ba:53:3b:5b:64:d0:17:6e:53:85:b1:51:a9:d1:
         22:06:e6:81:bb:40:07:1c:44:15:ba:a1:0c:dd:14:2f:cc:21:
         2b:87:cf:66:0c:b9:ee:50:58:e9:b9:21:15:36:92:09:eb:66:
         b9:22:e1:63:69:9c:c3:39:d0:78:91:05:07:ac:c0:3f:02:ba:
         73:55:8d:ca
-----BEGIN CERTIFICATE-----
MIIDdTCCAl2gAwIBAgIBDTANBgkqhkiG9w0BAQsFADCBrTELMAkGA1UEBhMCVVMx
EzARBgNVBAgMCkNhbGlmb3JuaWExFDASBgNVBAcMC0xvcyBBbmdlbGVzMRUwEwYD
VQQKDAxEaWdpQ2VydCBJbmMxGTAXBgNVBAsMEHd3dy5kaWdpY2VydC5jb20xIDAe
BgNVBAMMF0RpZ2lDZXJ0IEdsb2JhbCBSb290IENBMR8wHQYJKoZIhvcNAQkBFhB3
d3cuZGlnaWNlcnQuY29tMB4XDTI0MDMyNjA5NTc1MVoXDTM0MDMyNDA5NTc1MVow
gasxCzAJBgNVBAYTAlVTMRMwEQYDVQQIDApDYWxpZm9ybmlhMRQwEgYDVQQHDAtM
b3MgQW5nZWxlczEVMBMGA1UECgwMRGlnaUNlcnQgSW5jMRkwFwYDVQQLDBB3d3cu
ZGlnaWNlcnQuY29tMR4wHAYDVQQDDBVjYXRmcm9udC5kaWFucGluZy5jb20xHzAd
BgkqhkiG9w0BCQEWEHd3dy5kaWdpY2VydC5jb20wgZ8wDQYJKoZIhvcNAQEBBQAD
gY0AMIGJAoGBALqtTAkaPIVPYNWTvJ4S9JsW54vSKCmr+TiZ4YQ6G3BuoFut805l
XBn7VokW+2g2Qxo7tjJNY0OwxRBpPZYTf6rkdNSzYKqvW8dW9uFJVdmSunA3c0yR
a8wQjljy4hsbHnI+xrulygjYuyO7v4YC3hHp2XltYKbGDCzjNXLxdr+1AgMBAAGj
JDAiMCAGA1UdEQQZMBeCFWNhdGZyb250LmRpYW5waW5nLmNvbTANBgkqhkiG9w0B
AQsFAAOCAQEAnUcexLXYmfgtXfW0NIbfexzs0lykNL5Qh45jTuDugxrD1pQzou18
XbQHfEHElQ+Mpy7qEw/MojbXPPI1X4wWX6VT+bLhiqSkf19wFOk8nfCa7j9+MDz9
O38Opx3AX3S2FhCcs96SZjJ3NAZ33lXE4hD+9Qlq2fmBhZaI1mnOkXAzvAozFCZO
Y1dU4aOdkldgD4i71f+cF0COEU65n4Nx068AUUh/81mynhOqD63TDEQ9yElDboan
WbpTO1tk0BduU4WxUanRIgbmgbtABxxEFbqhDN0UL8whK4fPZgy57lBY6bkhFTaS
CetmuSLhY2mcwznQeJEFB6zAPwK6c1WNyg==
-----END CERTIFICATE-----
