Certificate:
    Data:
        Version: 3 (0x2)
        Serial Number: 32 (0x20)
        Signature Algorithm: sha256WithRSAEncryption
        Issuer: C=US, ST=California, L=Los Angeles, O=DigiCert Inc, OU=www.digicert.com, CN=DigiCert Global Root CA/emailAddress=www.digicert.com
        Validity
            Not Before: Mar 21 09:05:14 2024 GMT
            Not After : Mar 19 09:05:14 2034 GMT
        Subject: C=US, ST=California, L=Los Angeles, O=DigiCert Inc, OU=www.digicert.com, CN=checkappexec.microsoft.com/emailAddress=www.digicert.com
        Subject Public Key Info:
            Public Key Algorithm: rsaEncryption
                RSA Public-Key: (1024 bit)
                Modulus:
                    00:ba:ad:4c:09:1a:3c:85:4f:60:d5:93:bc:9e:12:
                    f4:9b:16:e7:8b:d2:28:29:ab:f9:38:99:e1:84:3a:
                    1b:70:6e:a0:5b:ad:f3:4e:65:5c:19:fb:56:89:16:
                    fb:68:36:43:1a:3b:b6:32:4d:63:43:b0:c5:10:69:
                    3d:96:13:7f:aa:e4:74:d4:b3:60:aa:af:5b:c7:56:
                    f6:e1:49:55:d9:92:ba:70:37:73:4c:91:6b:cc:10:
                    8e:58:f2:e2:1b:1b:1e:72:3e:c6:bb:a5:ca:08:d8:
                    bb:23:bb:bf:86:02:de:11:e9:d9:79:6d:60:a6:c6:
                    0c:2c:e3:35:72:f1:76:bf:b5
                Exponent: 65537 (0x10001)
        X509v3 extensions:
            X509v3 Subject Alternative Name: 
                DNS:checkappexec.microsoft.com
    Signature Algorithm: sha256WithRSAEncryption
         73:02:d7:7c:67:a5:bc:ad:18:07:92:ab:94:6c:a8:cb:cd:e6:
         de:d1:c0:ed:3e:d2:04:83:a3:89:20:18:08:b8:0f:63:d0:67:
         e4:ae:a9:e3:59:53:42:ee:eb:28:8a:a8:89:b2:ed:1b:4a:69:
         de:7a:74:27:d5:b6:76:68:34:08:56:ff:68:32:7d:14:39:11:
         ba:d2:a9:cb:64:ed:8e:7f:eb:0d:d3:a4:d4:7e:25:c5:3a:b8:
         da:06:ab:c7:75:b6:f4:5f:0d:a0:5f:57:75:27:3d:d8:29:6d:
         04:a1:3b:f8:94:d0:8c:51:fc:9f:af:24:93:fa:a5:63:5e:d2:
         0b:10:3e:c6:c4:97:0e:d8:d4:ba:bc:2c:20:ca:60:ad:1e:c3:
         e3:9c:14:df:81:46:72:4b:74:be:91:a0:db:d8:a0:53:c0:f4:
         be:25:52:ca:18:4d:f8:ad:a7:30:11:a3:93:51:32:23:20:66:
         61:a3:e1:e0:7b:51:95:b6:05:df:6d:64:42:09:60:ef:91:75:
         3f:66:fc:de:a4:b4:ee:71:d6:80:e2:ce:99:ae:2a:c4:4f:e3:
         4b:b8:8b:bc:5a:e3:f7:3c:b6:7a:f5:41:7f:cf:67:48:1e:80:
         7b:9c:e7:30:75:7c:f7:7e:13:5a:68:1c:f2:22:13:24:d9:a7:
         00:17:8e:f1
-----BEGIN CERTIFICATE-----
MIIDfzCCAmegAwIBAgIBIDANBgkqhkiG9w0BAQsFADCBrTELMAkGA1UEBhMCVVMx
EzARBgNVBAgMCkNhbGlmb3JuaWExFDASBgNVBAcMC0xvcyBBbmdlbGVzMRUwEwYD
VQQKDAxEaWdpQ2VydCBJbmMxGTAXBgNVBAsMEHd3dy5kaWdpY2VydC5jb20xIDAe
BgNVBAMMF0RpZ2lDZXJ0IEdsb2JhbCBSb290IENBMR8wHQYJKoZIhvcNAQkBFhB3
d3cuZGlnaWNlcnQuY29tMB4XDTI0MDMyMTA5MDUxNFoXDTM0MDMxOTA5MDUxNFow
gbAxCzAJBgNVBAYTAlVTMRMwEQYDVQQIDApDYWxpZm9ybmlhMRQwEgYDVQQHDAtM
b3MgQW5nZWxlczEVMBMGA1UECgwMRGlnaUNlcnQgSW5jMRkwFwYDVQQLDBB3d3cu
ZGlnaWNlcnQuY29tMSMwIQYDVQQDDBpjaGVja2FwcGV4ZWMubWljcm9zb2Z0LmNv
bTEfMB0GCSqGSIb3DQEJARYQd3d3LmRpZ2ljZXJ0LmNvbTCBnzANBgkqhkiG9w0B
AQEFAAOBjQAwgYkCgYEAuq1MCRo8hU9g1ZO8nhL0mxbni9IoKav5OJnhhDobcG6g
W63zTmVcGftWiRb7aDZDGju2Mk1jQ7DFEGk9lhN/quR01LNgqq9bx1b24UlV2ZK6
cDdzTJFrzBCOWPLiGxsecj7Gu6XKCNi7I7u/hgLeEenZeW1gpsYMLOM1cvF2v7UC
AwEAAaMpMCcwJQYDVR0RBB4wHIIaY2hlY2thcHBleGVjLm1pY3Jvc29mdC5jb20w
DQYJKoZIhvcNAQELBQADggEBAHMC13xnpbytGAeSq5RsqMvN5t7RwO0+0gSDo4kg
GAi4D2PQZ+SuqeNZU0Lu6yiKqImy7RtKad56dCfVtnZoNAhW/2gyfRQ5EbrSqctk
7Y5/6w3TpNR+JcU6uNoGq8d1tvRfDaBfV3UnPdgpbQShO/iU0IxR/J+vJJP6pWNe
0gsQPsbElw7Y1Lq8LCDKYK0ew+OcFN+BRnJLdL6RoNvYoFPA9L4lUsoYTfitpzAR
o5NRMiMgZmGj4eB7UZW2Bd9tZEIJYO+RdT9m/N6ktO5x1oDizpmuKsRP40u4i7xa
4/c8tnr1QX/PZ0gegHuc5zB1fPd+E1poHPIiEyTZpwAXjvE=
-----END CERTIFICATE-----
