Certificate:
    Data:
        Version: 3 (0x2)
        Serial Number: 33 (0x21)
        Signature Algorithm: sha256WithRSAEncryption
        Issuer: C=US, ST=California, L=Los Angeles, O=DigiCert Inc, OU=www.digicert.com, CN=DigiCert Global Root CA/emailAddress=www.digicert.com
        Validity
            Not Before: Mar 21 09:05:40 2024 GMT
            Not After : Mar 19 09:05:40 2034 GMT
        Subject: C=US, ST=California, L=Los Angeles, O=DigiCert Inc, OU=www.digicert.com, CN=clients2.google.com/emailAddress=www.digicert.com
        Subject Public Key Info:
            Public Key Algorithm: rsaEncryption
                RSA Public-Key: (1024 bit)
                Modulus:
                    00:ba:ad:4c:09:1a:3c:85:4f:60:d5:93:bc:9e:12:
                    f4:9b:16:e7:8b:d2:28:29:ab:f9:38:99:e1:84:3a:
                    1b:70:6e:a0:5b:ad:f3:4e:65:5c:19:fb:56:89:16:
                    fb:68:36:43:1a:3b:b6:32:4d:63:43:b0:c5:10:69:
                    3d:96:13:7f:aa:e4:74:d4:b3:60:aa:af:5b:c7:56:
                    f6:e1:49:55:d9:92:ba:70:37:73:4c:91:6b:cc:10:
                    8e:58:f2:e2:1b:1b:1e:72:3e:c6:bb:a5:ca:08:d8:
                    bb:23:bb:bf:86:02:de:11:e9:d9:79:6d:60:a6:c6:
                    0c:2c:e3:35:72:f1:76:bf:b5
                Exponent: 65537 (0x10001)
        X509v3 extensions:
            X509v3 Subject Alternative Name: 
                DNS:clients2.google.com
    Signature Algorithm: sha256WithRSAEncryption
         61:08:a9:5a:7b:d0:d2:d5:d4:24:0c:c3:25:c2:8a:fd:fe:21:
         a1:21:2a:80:92:45:8f:32:fa:83:2c:0a:c0:64:fb:a2:da:76:
         b0:7b:f7:c7:71:c3:84:b8:91:fc:04:5f:08:4c:a7:30:bf:37:
         15:cb:47:e0:44:34:e7:33:c2:c6:cd:f5:f3:c9:4f:41:a7:a8:
         23:3c:9a:b3:91:1c:54:e3:d3:7e:6e:2a:0a:01:64:ab:20:f7:
         0f:42:9c:71:83:f9:5a:82:a2:13:f4:7f:3c:5b:26:dd:00:6b:
         99:0f:e3:f7:39:59:83:6a:63:e1:18:64:58:49:27:b9:12:80:
         54:be:f6:88:bb:03:b5:db:69:31:b2:e1:63:30:e6:ad:2c:45:
         59:7e:4c:f9:6b:b8:9e:5e:b9:67:ba:1a:87:d8:b9:bf:bb:eb:
         17:6d:cd:b9:5e:df:4a:c3:1a:9c:6a:e9:b1:c3:bf:e4:94:70:
         e8:97:13:40:12:25:72:17:ef:8f:c8:de:f9:39:da:f8:98:d7:
         70:45:dc:d5:cf:fa:00:ed:44:ee:d5:c0:2a:33:83:8d:9c:7b:
         1b:26:77:d7:b3:c6:d2:46:55:99:50:30:dc:d0:99:00:5b:76:
         4e:25:09:1e:aa:72:42:b0:99:5d:5b:44:c1:48:db:42:0f:89:
         8d:7c:da:aa
-----BEGIN CERTIFICATE-----
MIIDcTCCAlmgAwIBAgIBITANBgkqhkiG9w0BAQsFADCBrTELMAkGA1UEBhMCVVMx
EzARBgNVBAgMCkNhbGlmb3JuaWExFDASBgNVBAcMC0xvcyBBbmdlbGVzMRUwEwYD
VQQKDAxEaWdpQ2VydCBJbmMxGTAXBgNVBAsMEHd3dy5kaWdpY2VydC5jb20xIDAe
BgNVBAMMF0RpZ2lDZXJ0IEdsb2JhbCBSb290IENBMR8wHQYJKoZIhvcNAQkBFhB3
d3cuZGlnaWNlcnQuY29tMB4XDTI0MDMyMTA5MDU0MFoXDTM0MDMxOTA5MDU0MFow
gakxCzAJBgNVBAYTAlVTMRMwEQYDVQQIDApDYWxpZm9ybmlhMRQwEgYDVQQHDAtM
b3MgQW5nZWxlczEVMBMGA1UECgwMRGlnaUNlcnQgSW5jMRkwFwYDVQQLDBB3d3cu
ZGlnaWNlcnQuY29tMRwwGgYDVQQDDBNjbGllbnRzMi5nb29nbGUuY29tMR8wHQYJ
KoZIhvcNAQkBFhB3d3cuZGlnaWNlcnQuY29tMIGfMA0GCSqGSIb3DQEBAQUAA4GN
ADCBiQKBgQC6rUwJGjyFT2DVk7yeEvSbFueL0igpq/k4meGEOhtwbqBbrfNOZVwZ
+1aJFvtoNkMaO7YyTWNDsMUQaT2WE3+q5HTUs2Cqr1vHVvbhSVXZkrpwN3NMkWvM
EI5Y8uIbGx5yPsa7pcoI2Lsju7+GAt4R6dl5bWCmxgws4zVy8Xa/tQIDAQABoyIw
IDAeBgNVHREEFzAVghNjbGllbnRzMi5nb29nbGUuY29tMA0GCSqGSIb3DQEBCwUA
A4IBAQBhCKlae9DS1dQkDMMlwor9/iGhISqAkkWPMvqDLArAZPui2nawe/fHccOE
uJH8BF8ITKcwvzcVy0fgRDTnM8LGzfXzyU9Bp6gjPJqzkRxU49N+bioKAWSrIPcP
Qpxxg/lagqIT9H88WybdAGuZD+P3OVmDamPhGGRYSSe5EoBUvvaIuwO122kxsuFj
MOatLEVZfkz5a7ieXrlnuhqH2Lm/u+sXbc25Xt9Kwxqcaumxw7/klHDolxNAEiVy
F++PyN75Odr4mNdwRdzVz/oA7UTu1cAqM4ONnHsbJnfXs8bSRlWZUDDc0JkAW3ZO
JQkeqnJCsJldW0TBSNtCD4mNfNqq
-----END CERTIFICATE-----
