Certificate:
    Data:
        Version: 3 (0x2)
        Serial Number: 54 (0x36)
        Signature Algorithm: sha256WithRSAEncryption
        Issuer: C=US, ST=California, L=Los Angeles, O=DigiCert Inc, OU=www.digicert.com, CN=DigiCert Global Root CA/emailAddress=www.digicert.com
        Validity
            Not Before: Mar 21 09:08:21 2024 GMT
            Not After : Mar 19 09:08:21 2034 GMT
        Subject: C=US, ST=California, L=Los Angeles, O=DigiCert Inc, OU=www.digicert.com, CN=clientservices.googleapis.com/emailAddress=www.digicert.com
        Subject Public Key Info:
            Public Key Algorithm: rsaEncryption
                RSA Public-Key: (1024 bit)
                Modulus:
                    00:ba:ad:4c:09:1a:3c:85:4f:60:d5:93:bc:9e:12:
                    f4:9b:16:e7:8b:d2:28:29:ab:f9:38:99:e1:84:3a:
                    1b:70:6e:a0:5b:ad:f3:4e:65:5c:19:fb:56:89:16:
                    fb:68:36:43:1a:3b:b6:32:4d:63:43:b0:c5:10:69:
                    3d:96:13:7f:aa:e4:74:d4:b3:60:aa:af:5b:c7:56:
                    f6:e1:49:55:d9:92:ba:70:37:73:4c:91:6b:cc:10:
                    8e:58:f2:e2:1b:1b:1e:72:3e:c6:bb:a5:ca:08:d8:
                    bb:23:bb:bf:86:02:de:11:e9:d9:79:6d:60:a6:c6:
                    0c:2c:e3:35:72:f1:76:bf:b5
                Exponent: 65537 (0x10001)
        X509v3 extensions:
            X509v3 Subject Alternative Name: 
                DNS:clientservices.googleapis.com
    Signature Algorithm: sha256WithRSAEncryption
         66:a1:29:20:4d:71:49:4e:f1:9a:6d:7b:c2:71:91:90:5b:6d:
         ce:95:4b:bc:44:19:94:b4:f7:5e:83:43:d5:da:ad:c1:62:d5:
         05:4d:28:72:0a:94:7e:65:da:c4:a9:fe:22:b6:43:90:7c:b4:
         86:f1:a3:62:de:11:c3:4d:a5:53:e4:90:9d:92:a6:15:e4:ac:
         3a:c8:12:b2:93:a1:21:61:96:60:87:48:83:56:33:cf:73:82:
         d7:be:a4:41:ac:e2:c4:c2:02:2d:7e:14:af:c2:a5:7a:60:14:
         18:be:bb:f6:e2:62:4d:35:82:4e:78:33:f6:13:a5:ad:c3:97:
         57:7a:1a:d3:ff:aa:11:79:43:ae:51:c0:0c:b5:5e:a1:5c:53:
         01:6b:02:e2:3c:a2:91:8d:33:61:4f:a2:6a:87:87:ec:1e:1b:
         48:ee:37:68:26:8b:d1:9d:58:b6:bd:d4:e6:0d:b7:44:a9:ae:
         4e:47:45:e1:25:47:dc:ec:01:58:0c:a3:12:43:a4:ea:4c:b8:
         bb:1c:d5:ce:a2:f9:37:91:8f:ad:d4:f0:39:d6:73:3b:2c:30:
         f4:a7:59:41:83:e4:ea:5f:0e:ab:b7:be:6d:08:f6:52:48:55:
         a5:63:67:aa:51:70:7d:6a:74:7a:6f:19:39:65:4d:8b:cf:8f:
         c5:ea:73:01
-----BEGIN CERTIFICATE-----
MIIDhTCCAm2gAwIBAgIBNjANBgkqhkiG9w0BAQsFADCBrTELMAkGA1UEBhMCVVMx
EzARBgNVBAgMCkNhbGlmb3JuaWExFDASBgNVBAcMC0xvcyBBbmdlbGVzMRUwEwYD
VQQKDAxEaWdpQ2VydCBJbmMxGTAXBgNVBAsMEHd3dy5kaWdpY2VydC5jb20xIDAe
BgNVBAMMF0RpZ2lDZXJ0IEdsb2JhbCBSb290IENBMR8wHQYJKoZIhvcNAQkBFhB3
d3cuZGlnaWNlcnQuY29tMB4XDTI0MDMyMTA5MDgyMVoXDTM0MDMxOTA5MDgyMVow
gbMxCzAJBgNVBAYTAlVTMRMwEQYDVQQIDApDYWxpZm9ybmlhMRQwEgYDVQQHDAtM
b3MgQW5nZWxlczEVMBMGA1UECgwMRGlnaUNlcnQgSW5jMRkwFwYDVQQLDBB3d3cu
ZGlnaWNlcnQuY29tMSYwJAYDVQQDDB1jbGllbnRzZXJ2aWNlcy5nb29nbGVhcGlz
LmNvbTEfMB0GCSqGSIb3DQEJARYQd3d3LmRpZ2ljZXJ0LmNvbTCBnzANBgkqhkiG
9w0BAQEFAAOBjQAwgYkCgYEAuq1MCRo8hU9g1ZO8nhL0mxbni9IoKav5OJnhhDob
cG6gW63zTmVcGftWiRb7aDZDGju2Mk1jQ7DFEGk9lhN/quR01LNgqq9bx1b24UlV
2ZK6cDdzTJFrzBCOWPLiGxsecj7Gu6XKCNi7I7u/hgLeEenZeW1gpsYMLOM1cvF2
v7UCAwEAAaMsMCowKAYDVR0RBCEwH4IdY2xpZW50c2VydmljZXMuZ29vZ2xlYXBp
cy5jb20wDQYJKoZIhvcNAQELBQADggEBAGahKSBNcUlO8Zpte8JxkZBbbc6VS7xE
GZS0916DQ9XarcFi1QVNKHIKlH5l2sSp/iK2Q5B8tIbxo2LeEcNNpVPkkJ2SphXk
rDrIErKToSFhlmCHSINWM89zgte+pEGs4sTCAi1+FK/CpXpgFBi+u/biYk01gk54
M/YTpa3Dl1d6GtP/qhF5Q65RwAy1XqFcUwFrAuI8opGNM2FPomqHh+weG0juN2gm
i9GdWLa91OYNt0Sprk5HReElR9zsAVgMoxJDpOpMuLsc1c6i+TeRj63U8DnWczss
MPSnWUGD5OpfDqu3vm0I9lJIVaVjZ6pRcH1qdHpvGTllTYvPj8XqcwE=
-----END CERTIFICATE-----
