Certificate:
    Data:
        Version: 3 (0x2)
        Serial Number: 35 (0x23)
        Signature Algorithm: sha256WithRSAEncryption
        Issuer: C=US, ST=California, L=Los Angeles, O=DigiCert Inc, OU=www.digicert.com, CN=DigiCert Global Root CA/emailAddress=www.digicert.com
        Validity
            Not Before: Mar 21 09:07:45 2024 GMT
            Not After : Mar 19 09:07:45 2034 GMT
        Subject: C=US, ST=California, L=Los Angeles, O=DigiCert Inc, OU=www.digicert.com, CN=cn.bing.com/emailAddress=www.digicert.com
        Subject Public Key Info:
            Public Key Algorithm: rsaEncryption
                RSA Public-Key: (1024 bit)
                Modulus:
                    00:ba:ad:4c:09:1a:3c:85:4f:60:d5:93:bc:9e:12:
                    f4:9b:16:e7:8b:d2:28:29:ab:f9:38:99:e1:84:3a:
                    1b:70:6e:a0:5b:ad:f3:4e:65:5c:19:fb:56:89:16:
                    fb:68:36:43:1a:3b:b6:32:4d:63:43:b0:c5:10:69:
                    3d:96:13:7f:aa:e4:74:d4:b3:60:aa:af:5b:c7:56:
                    f6:e1:49:55:d9:92:ba:70:37:73:4c:91:6b:cc:10:
                    8e:58:f2:e2:1b:1b:1e:72:3e:c6:bb:a5:ca:08:d8:
                    bb:23:bb:bf:86:02:de:11:e9:d9:79:6d:60:a6:c6:
                    0c:2c:e3:35:72:f1:76:bf:b5
                Exponent: 65537 (0x10001)
        X509v3 extensions:
            X509v3 Subject Alternative Name: 
                DNS:cn.bing.com
    Signature Algorithm: sha256WithRSAEncryption
         2d:07:ac:28:8f:9b:42:ad:fb:6e:b3:0a:65:3b:77:53:48:90:
         6c:04:f2:c1:2b:32:b8:9b:f5:d0:ca:b1:4e:0d:83:10:81:eb:
         8a:4c:f9:4a:ca:11:17:0b:a0:a5:cc:3d:01:b5:b8:31:54:70:
         39:ef:1f:9f:5e:9b:35:f1:1e:46:56:33:9b:eb:be:7e:ca:4f:
         0d:3c:de:3f:ab:f0:7e:0b:49:cf:80:a9:7c:9c:50:9b:f0:8b:
         ce:dd:9c:fb:06:39:05:4b:6c:f7:4d:a2:56:e3:1d:ad:65:99:
         a4:c5:6c:16:ef:bd:0a:c3:dd:c9:30:0c:7a:80:7b:82:5b:6c:
         64:63:2c:4e:08:8f:35:e1:bd:d3:ca:86:ab:42:b9:ed:ad:59:
         e1:07:8c:f4:33:ca:79:43:ff:b4:33:98:68:4c:98:d5:e4:71:
         38:a4:29:4f:01:35:29:5c:59:e2:bb:aa:c5:f1:29:f0:c4:70:
         ce:ae:4d:a8:ba:1f:d9:47:a3:3c:31:63:e4:5d:85:05:38:83:
         86:7f:6a:81:14:18:ff:e9:83:3c:a9:32:a3:39:9d:70:0c:1e:
         82:e5:89:89:ad:66:1d:cd:17:19:f6:be:d2:50:64:89:6f:7d:
         8e:b9:8f:b0:96:35:b5:63:fc:a3:f9:dd:69:4f:dc:6b:d5:71:
         31:80:97:4f
-----BEGIN CERTIFICATE-----
MIIDYTCCAkmgAwIBAgIBIzANBgkqhkiG9w0BAQsFADCBrTELMAkGA1UEBhMCVVMx
EzARBgNVBAgMCkNhbGlmb3JuaWExFDASBgNVBAcMC0xvcyBBbmdlbGVzMRUwEwYD
VQQKDAxEaWdpQ2VydCBJbmMxGTAXBgNVBAsMEHd3dy5kaWdpY2VydC5jb20xIDAe
BgNVBAMMF0RpZ2lDZXJ0IEdsb2JhbCBSb290IENBMR8wHQYJKoZIhvcNAQkBFhB3
d3cuZGlnaWNlcnQuY29tMB4XDTI0MDMyMTA5MDc0NVoXDTM0MDMxOTA5MDc0NVow
gaExCzAJBgNVBAYTAlVTMRMwEQYDVQQIDApDYWxpZm9ybmlhMRQwEgYDVQQHDAtM
b3MgQW5nZWxlczEVMBMGA1UECgwMRGlnaUNlcnQgSW5jMRkwFwYDVQQLDBB3d3cu
ZGlnaWNlcnQuY29tMRQwEgYDVQQDDAtjbi5iaW5nLmNvbTEfMB0GCSqGSIb3DQEJ
ARYQd3d3LmRpZ2ljZXJ0LmNvbTCBnzANBgkqhkiG9w0BAQEFAAOBjQAwgYkCgYEA
uq1MCRo8hU9g1ZO8nhL0mxbni9IoKav5OJnhhDobcG6gW63zTmVcGftWiRb7aDZD
Gju2Mk1jQ7DFEGk9lhN/quR01LNgqq9bx1b24UlV2ZK6cDdzTJFrzBCOWPLiGxse
cj7Gu6XKCNi7I7u/hgLeEenZeW1gpsYMLOM1cvF2v7UCAwEAAaMaMBgwFgYDVR0R
BA8wDYILY24uYmluZy5jb20wDQYJKoZIhvcNAQELBQADggEBAC0HrCiPm0Kt+26z
CmU7d1NIkGwE8sErMrib9dDKsU4NgxCB64pM+UrKERcLoKXMPQG1uDFUcDnvH59e
mzXxHkZWM5vrvn7KTw083j+r8H4LSc+AqXycUJvwi87dnPsGOQVLbPdNolbjHa1l
maTFbBbvvQrD3ckwDHqAe4JbbGRjLE4IjzXhvdPKhqtCue2tWeEHjPQzynlD/7Qz
mGhMmNXkcTikKU8BNSlcWeK7qsXxKfDEcM6uTai6H9lHozwxY+RdhQU4g4Z/aoEU
GP/pgzypMqM5nXAMHoLliYmtZh3NFxn2vtJQZIlvfY65j7CWNbVj/KP53WlP3GvV
cTGAl08=
-----END CERTIFICATE-----
