Certificate:
    Data:
        Version: 3 (0x2)
        Serial Number: 22 (0x16)
        Signature Algorithm: sha256WithRSAEncryption
        Issuer: C=US, ST=California, L=Los Angeles, O=DigiCert Inc, OU=www.digicert.com, CN=DigiCert Global Root CA/emailAddress=www.digicert.com
        Validity
            Not Before: Mar 21 08:57:55 2024 GMT
            Not After : Mar 19 08:57:55 2034 GMT
        Subject: C=US, ST=California, L=Los Angeles, O=DigiCert Inc, OU=www.digicert.com, CN=content-autofill.googleapis.com/emailAddress=www.digicert.com
        Subject Public Key Info:
            Public Key Algorithm: rsaEncryption
                RSA Public-Key: (1024 bit)
                Modulus:
                    00:ba:ad:4c:09:1a:3c:85:4f:60:d5:93:bc:9e:12:
                    f4:9b:16:e7:8b:d2:28:29:ab:f9:38:99:e1:84:3a:
                    1b:70:6e:a0:5b:ad:f3:4e:65:5c:19:fb:56:89:16:
                    fb:68:36:43:1a:3b:b6:32:4d:63:43:b0:c5:10:69:
                    3d:96:13:7f:aa:e4:74:d4:b3:60:aa:af:5b:c7:56:
                    f6:e1:49:55:d9:92:ba:70:37:73:4c:91:6b:cc:10:
                    8e:58:f2:e2:1b:1b:1e:72:3e:c6:bb:a5:ca:08:d8:
                    bb:23:bb:bf:86:02:de:11:e9:d9:79:6d:60:a6:c6:
                    0c:2c:e3:35:72:f1:76:bf:b5
                Exponent: 65537 (0x10001)
        X509v3 extensions:
            X509v3 Subject Alternative Name: 
                DNS:content-autofill.googleapis.com
    Signature Algorithm: sha256WithRSAEncryption
         a0:a5:f2:9d:95:e9:97:23:d6:78:31:39:7b:5f:cd:1d:22:ef:
         19:8e:87:45:6d:a4:50:f7:9b:e8:a0:f3:5e:47:8a:51:d7:37:
         63:20:43:05:2b:ce:bf:ec:40:95:e6:7c:6f:11:26:a0:41:ba:
         4c:fd:0b:e9:b6:85:76:8f:82:e8:14:37:f4:ea:0a:df:a1:b5:
         49:2f:86:24:a5:a9:04:89:e3:c5:ae:0a:83:b9:8d:72:08:22:
         53:fd:29:73:df:d5:65:00:6b:1d:97:d2:2d:0a:83:15:b0:39:
         8b:16:76:fb:8a:3a:c8:b3:0f:45:c3:15:5d:53:46:5f:0e:b4:
         48:fc:58:77:38:d6:86:94:37:3d:7f:d6:01:56:fc:b7:1e:8c:
         b3:3e:d3:61:af:6c:64:08:74:e8:fb:94:ce:e5:cc:29:6c:d0:
         ea:54:a8:27:8c:22:5c:61:a5:66:52:db:22:78:aa:e6:dd:d5:
         b5:d0:d9:21:5d:21:41:83:7d:9d:db:39:de:8e:0a:8b:c3:46:
         7c:be:d1:12:69:c3:cf:90:69:8d:2f:97:91:36:1b:e6:b3:94:
         bf:88:27:da:17:23:29:58:68:42:05:51:44:31:74:19:57:1d:
         05:71:95:54:47:40:76:e2:a1:25:f2:9b:f7:7c:98:9b:2f:f2:
         67:47:1b:fd
-----BEGIN CERTIFICATE-----
MIIDiTCCAnGgAwIBAgIBFjANBgkqhkiG9w0BAQsFADCBrTELMAkGA1UEBhMCVVMx
EzARBgNVBAgMCkNhbGlmb3JuaWExFDASBgNVBAcMC0xvcyBBbmdlbGVzMRUwEwYD
VQQKDAxEaWdpQ2VydCBJbmMxGTAXBgNVBAsMEHd3dy5kaWdpY2VydC5jb20xIDAe
BgNVBAMMF0RpZ2lDZXJ0IEdsb2JhbCBSb290IENBMR8wHQYJKoZIhvcNAQkBFhB3
d3cuZGlnaWNlcnQuY29tMB4XDTI0MDMyMTA4NTc1NVoXDTM0MDMxOTA4NTc1NVow
gbUxCzAJBgNVBAYTAlVTMRMwEQYDVQQIDApDYWxpZm9ybmlhMRQwEgYDVQQHDAtM
b3MgQW5nZWxlczEVMBMGA1UECgwMRGlnaUNlcnQgSW5jMRkwFwYDVQQLDBB3d3cu
ZGlnaWNlcnQuY29tMSgwJgYDVQQDDB9jb250ZW50LWF1dG9maWxsLmdvb2dsZWFw
aXMuY29tMR8wHQYJKoZIhvcNAQkBFhB3d3cuZGlnaWNlcnQuY29tMIGfMA0GCSqG
SIb3DQEBAQUAA4GNADCBiQKBgQC6rUwJGjyFT2DVk7yeEvSbFueL0igpq/k4meGE
OhtwbqBbrfNOZVwZ+1aJFvtoNkMaO7YyTWNDsMUQaT2WE3+q5HTUs2Cqr1vHVvbh
SVXZkrpwN3NMkWvMEI5Y8uIbGx5yPsa7pcoI2Lsju7+GAt4R6dl5bWCmxgws4zVy
8Xa/tQIDAQABoy4wLDAqBgNVHREEIzAhgh9jb250ZW50LWF1dG9maWxsLmdvb2ds
ZWFwaXMuY29tMA0GCSqGSIb3DQEBCwUAA4IBAQCgpfKdlemXI9Z4MTl7X80dIu8Z
jodFbaRQ95vooPNeR4pR1zdjIEMFK86/7ECV5nxvESagQbpM/QvptoV2j4LoFDf0
6grfobVJL4YkpakEiePFrgqDuY1yCCJT/Slz39VlAGsdl9ItCoMVsDmLFnb7ijrI
sw9FwxVdU0ZfDrRI/Fh3ONaGlDc9f9YBVvy3HoyzPtNhr2xkCHTo+5TO5cwpbNDq
VKgnjCJcYaVmUtsieKrm3dW10NkhXSFBg32d2znejgqLw0Z8vtESacPPkGmNL5eR
Nhvms5S/iCfaFyMpWGhCBVFEMXQZVx0FcZVUR0B24qEl8pv3fJibL/JnRxv9
-----END CERTIFICATE-----
