Certificate:
    Data:
        Version: 3 (0x2)
        Serial Number: 11 (0xb)
        Signature Algorithm: sha256WithRSAEncryption
        Issuer: C=US, ST=California, L=Los Angeles, O=DigiCert Inc, OU=www.digicert.com, CN=DigiCert Global Root CA/emailAddress=www.digicert.com
        Validity
            Not Before: Mar 21 06:16:20 2024 GMT
            Not After : Mar 19 06:16:20 2034 GMT
        Subject: C=US, ST=California, L=Los Angeles, O=DigiCert Inc, OU=www.digicert.com, CN=content-autofill.googleapis.com/emailAddress=www.digicert.com
        Subject Public Key Info:
            Public Key Algorithm: rsaEncryption
                RSA Public-Key: (1024 bit)
                Modulus:
                    00:ba:ad:4c:09:1a:3c:85:4f:60:d5:93:bc:9e:12:
                    f4:9b:16:e7:8b:d2:28:29:ab:f9:38:99:e1:84:3a:
                    1b:70:6e:a0:5b:ad:f3:4e:65:5c:19:fb:56:89:16:
                    fb:68:36:43:1a:3b:b6:32:4d:63:43:b0:c5:10:69:
                    3d:96:13:7f:aa:e4:74:d4:b3:60:aa:af:5b:c7:56:
                    f6:e1:49:55:d9:92:ba:70:37:73:4c:91:6b:cc:10:
                    8e:58:f2:e2:1b:1b:1e:72:3e:c6:bb:a5:ca:08:d8:
                    bb:23:bb:bf:86:02:de:11:e9:d9:79:6d:60:a6:c6:
                    0c:2c:e3:35:72:f1:76:bf:b5
                Exponent: 65537 (0x10001)
        X509v3 extensions:
            X509v3 Subject Alternative Name: 
                DNS:content-autofill.googleapis.com
    Signature Algorithm: sha256WithRSAEncryption
         72:57:37:15:ca:c8:56:c8:d3:23:76:6c:89:83:67:b2:16:a2:
         a8:32:1a:75:75:0b:1e:a5:2d:6e:48:ab:23:a4:b8:c2:57:fa:
         e4:a5:21:b9:0a:ee:42:90:9a:38:9e:4a:bf:5b:6e:80:86:56:
         82:0c:95:b7:9f:cd:3a:7f:46:26:96:c8:41:00:a9:e9:b4:94:
         f4:47:8e:f5:a4:9a:58:fa:52:3a:7a:9a:66:5c:6d:c5:19:53:
         25:e9:bd:a1:a1:e7:88:ad:ee:c2:c9:e7:95:49:61:64:cd:1c:
         e1:f0:29:62:52:73:3a:86:f9:f5:16:7d:8e:75:ea:9f:0b:3a:
         24:c4:91:c5:a1:c5:9f:5d:9a:de:b7:2c:86:bc:d8:a5:aa:7d:
         36:86:b8:4c:a3:13:b7:14:60:14:4e:35:3c:4a:9a:dc:63:91:
         41:28:37:1b:99:b1:de:e0:2b:f8:fa:93:e2:54:be:08:3f:55:
         1b:12:70:5d:3a:76:f1:39:a9:9b:cc:4f:32:f7:6c:78:16:f2:
         2c:a7:14:c7:83:28:3f:44:0b:4c:e9:29:6e:0c:01:74:25:7d:
         dc:a0:a9:34:d7:c1:78:80:53:05:23:a4:1a:68:e1:85:7e:22:
         8b:88:b6:06:4a:7d:37:d6:fa:a0:f0:76:c3:66:ca:ae:d4:6e:
         1c:4f:26:4a
-----BEGIN CERTIFICATE-----
MIIDiTCCAnGgAwIBAgIBCzANBgkqhkiG9w0BAQsFADCBrTELMAkGA1UEBhMCVVMx
EzARBgNVBAgMCkNhbGlmb3JuaWExFDASBgNVBAcMC0xvcyBBbmdlbGVzMRUwEwYD
VQQKDAxEaWdpQ2VydCBJbmMxGTAXBgNVBAsMEHd3dy5kaWdpY2VydC5jb20xIDAe
BgNVBAMMF0RpZ2lDZXJ0IEdsb2JhbCBSb290IENBMR8wHQYJKoZIhvcNAQkBFhB3
d3cuZGlnaWNlcnQuY29tMB4XDTI0MDMyMTA2MTYyMFoXDTM0MDMxOTA2MTYyMFow
gbUxCzAJBgNVBAYTAlVTMRMwEQYDVQQIDApDYWxpZm9ybmlhMRQwEgYDVQQHDAtM
b3MgQW5nZWxlczEVMBMGA1UECgwMRGlnaUNlcnQgSW5jMRkwFwYDVQQLDBB3d3cu
ZGlnaWNlcnQuY29tMSgwJgYDVQQDDB9jb250ZW50LWF1dG9maWxsLmdvb2dsZWFw
aXMuY29tMR8wHQYJKoZIhvcNAQkBFhB3d3cuZGlnaWNlcnQuY29tMIGfMA0GCSqG
SIb3DQEBAQUAA4GNADCBiQKBgQC6rUwJGjyFT2DVk7yeEvSbFueL0igpq/k4meGE
OhtwbqBbrfNOZVwZ+1aJFvtoNkMaO7YyTWNDsMUQaT2WE3+q5HTUs2Cqr1vHVvbh
SVXZkrpwN3NMkWvMEI5Y8uIbGx5yPsa7pcoI2Lsju7+GAt4R6dl5bWCmxgws4zVy
8Xa/tQIDAQABoy4wLDAqBgNVHREEIzAhgh9jb250ZW50LWF1dG9maWxsLmdvb2ds
ZWFwaXMuY29tMA0GCSqGSIb3DQEBCwUAA4IBAQByVzcVyshWyNMjdmyJg2eyFqKo
Mhp1dQsepS1uSKsjpLjCV/rkpSG5Cu5CkJo4nkq/W26AhlaCDJW3n806f0YmlshB
AKnptJT0R471pJpY+lI6eppmXG3FGVMl6b2hoeeIre7CyeeVSWFkzRzh8CliUnM6
hvn1Fn2OdeqfCzokxJHFocWfXZretyyGvNilqn02hrhMoxO3FGAUTjU8SprcY5FB
KDcbmbHe4Cv4+pPiVL4IP1UbEnBdOnbxOambzE8y92x4FvIspxTHgyg/RAtM6Slu
DAF0JX3coKk018F4gFMFI6QaaOGFfiKLiLYGSn031vqg8HbDZsqu1G4cTyZK
-----END CERTIFICATE-----
