Certificate:
    Data:
        Version: 3 (0x2)
        Serial Number: 5 (0x5)
        Signature Algorithm: sha256WithRSAEncryption
        Issuer: C=US, ST=California, L=Los Angeles, O=DigiCert Inc, OU=www.digicert.com, CN=DigiCert Global Root CA/emailAddress=www.digicert.com
        Validity
            Not Before: Mar 21 08:56:51 2024 GMT
            Not After : Mar 19 08:56:51 2034 GMT
        Subject: C=US, ST=California, L=Los Angeles, O=DigiCert Inc, OU=www.digicert.com, CN=d.alicdn.com/emailAddress=www.digicert.com
        Subject Public Key Info:
            Public Key Algorithm: rsaEncryption
                RSA Public-Key: (1024 bit)
                Modulus:
                    00:ba:ad:4c:09:1a:3c:85:4f:60:d5:93:bc:9e:12:
                    f4:9b:16:e7:8b:d2:28:29:ab:f9:38:99:e1:84:3a:
                    1b:70:6e:a0:5b:ad:f3:4e:65:5c:19:fb:56:89:16:
                    fb:68:36:43:1a:3b:b6:32:4d:63:43:b0:c5:10:69:
                    3d:96:13:7f:aa:e4:74:d4:b3:60:aa:af:5b:c7:56:
                    f6:e1:49:55:d9:92:ba:70:37:73:4c:91:6b:cc:10:
                    8e:58:f2:e2:1b:1b:1e:72:3e:c6:bb:a5:ca:08:d8:
                    bb:23:bb:bf:86:02:de:11:e9:d9:79:6d:60:a6:c6:
                    0c:2c:e3:35:72:f1:76:bf:b5
                Exponent: 65537 (0x10001)
        X509v3 extensions:
            X509v3 Subject Alternative Name: 
                DNS:d.alicdn.com
    Signature Algorithm: sha256WithRSAEncryption
         9c:cb:cd:8a:7e:70:0d:be:fb:0f:1e:3f:5f:fc:37:ed:2a:e6:
         96:88:08:85:c2:c5:ca:15:33:93:64:2a:04:94:7b:f9:35:79:
         c9:8e:a9:a2:87:2d:1c:b7:c9:67:8b:0b:52:64:68:db:d7:53:
         32:99:ba:d9:7a:7d:ad:c4:f2:fb:5f:33:41:fa:02:70:9a:29:
         d4:33:3c:72:88:56:e1:95:73:67:6c:e3:90:e5:63:38:17:94:
         35:31:d4:76:ac:17:83:c5:1c:cf:f8:f4:8a:8e:24:f9:04:6d:
         68:a9:c8:ec:30:04:9b:35:41:f7:0e:b9:76:e4:13:e6:3a:05:
         13:08:ce:ed:95:fe:dc:91:04:8d:88:80:64:17:51:0a:33:2e:
         c2:ff:c3:6c:c4:5e:51:0f:f2:9e:d4:28:7f:7f:ec:73:9d:7d:
         bf:cd:8b:b5:33:f0:13:d9:d2:3c:ec:9d:e5:33:af:23:ed:04:
         5b:fe:f4:bf:ca:93:89:d0:e1:8d:45:bc:be:56:1c:d0:ed:25:
         41:61:49:25:a7:43:7f:08:ff:11:59:89:02:29:92:89:15:8d:
         ba:7c:6a:62:a1:a6:0f:25:0f:11:33:4f:6e:e2:20:fc:e1:7b:
         fe:e4:17:b2:cb:7d:33:ab:7f:05:45:d6:97:8f:47:0a:e3:e4:
         29:13:2d:45
-----BEGIN CERTIFICATE-----
MIIDYzCCAkugAwIBAgIBBTANBgkqhkiG9w0BAQsFADCBrTELMAkGA1UEBhMCVVMx
EzARBgNVBAgMCkNhbGlmb3JuaWExFDASBgNVBAcMC0xvcyBBbmdlbGVzMRUwEwYD
VQQKDAxEaWdpQ2VydCBJbmMxGTAXBgNVBAsMEHd3dy5kaWdpY2VydC5jb20xIDAe
BgNVBAMMF0RpZ2lDZXJ0IEdsb2JhbCBSb290IENBMR8wHQYJKoZIhvcNAQkBFhB3
d3cuZGlnaWNlcnQuY29tMB4XDTI0MDMyMTA4NTY1MVoXDTM0MDMxOTA4NTY1MVow
gaIxCzAJBgNVBAYTAlVTMRMwEQYDVQQIDApDYWxpZm9ybmlhMRQwEgYDVQQHDAtM
b3MgQW5nZWxlczEVMBMGA1UECgwMRGlnaUNlcnQgSW5jMRkwFwYDVQQLDBB3d3cu
ZGlnaWNlcnQuY29tMRUwEwYDVQQDDAxkLmFsaWNkbi5jb20xHzAdBgkqhkiG9w0B
CQEWEHd3dy5kaWdpY2VydC5jb20wgZ8wDQYJKoZIhvcNAQEBBQADgY0AMIGJAoGB
ALqtTAkaPIVPYNWTvJ4S9JsW54vSKCmr+TiZ4YQ6G3BuoFut805lXBn7VokW+2g2
Qxo7tjJNY0OwxRBpPZYTf6rkdNSzYKqvW8dW9uFJVdmSunA3c0yRa8wQjljy4hsb
HnI+xrulygjYuyO7v4YC3hHp2XltYKbGDCzjNXLxdr+1AgMBAAGjGzAZMBcGA1Ud
EQQQMA6CDGQuYWxpY2RuLmNvbTANBgkqhkiG9w0BAQsFAAOCAQEAnMvNin5wDb77
Dx4/X/w37SrmlogIhcLFyhUzk2QqBJR7+TV5yY6pooctHLfJZ4sLUmRo29dTMpm6
2Xp9rcTy+18zQfoCcJop1DM8cohW4ZVzZ2zjkOVjOBeUNTHUdqwXg8Ucz/j0io4k
+QRtaKnI7DAEmzVB9w65duQT5joFEwjO7ZX+3JEEjYiAZBdRCjMuwv/DbMReUQ/y
ntQof3/sc519v82LtTPwE9nSPOyd5TOvI+0EW/70v8qTidDhjUW8vlYc0O0lQWFJ
JadDfwj/EVmJAimSiRWNunxqYqGmDyUPETNPbuIg/OF7/uQXsst9M6t/BUXWl49H
CuPkKRMtRQ==
-----END CERTIFICATE-----
