Certificate:
    Data:
        Version: 3 (0x2)
        Serial Number: 33 (0x21)
        Signature Algorithm: sha256WithRSAEncryption
        Issuer: C=US, ST=California, L=Los Angeles, O=DigiCert Inc, OU=www.digicert.com, CN=DigiCert Global Root CA/emailAddress=www.digicert.com
        Validity
            Not Before: Mar 21 06:30:24 2024 GMT
            Not After : Mar 19 06:30:24 2034 GMT
        Subject: C=US, ST=California, L=Los Angeles, O=DigiCert Inc, OU=www.digicert.com, CN=d.alicdn.com/emailAddress=www.digicert.com
        Subject Public Key Info:
            Public Key Algorithm: rsaEncryption
                RSA Public-Key: (1024 bit)
                Modulus:
                    00:ba:ad:4c:09:1a:3c:85:4f:60:d5:93:bc:9e:12:
                    f4:9b:16:e7:8b:d2:28:29:ab:f9:38:99:e1:84:3a:
                    1b:70:6e:a0:5b:ad:f3:4e:65:5c:19:fb:56:89:16:
                    fb:68:36:43:1a:3b:b6:32:4d:63:43:b0:c5:10:69:
                    3d:96:13:7f:aa:e4:74:d4:b3:60:aa:af:5b:c7:56:
                    f6:e1:49:55:d9:92:ba:70:37:73:4c:91:6b:cc:10:
                    8e:58:f2:e2:1b:1b:1e:72:3e:c6:bb:a5:ca:08:d8:
                    bb:23:bb:bf:86:02:de:11:e9:d9:79:6d:60:a6:c6:
                    0c:2c:e3:35:72:f1:76:bf:b5
                Exponent: 65537 (0x10001)
        X509v3 extensions:
            X509v3 Subject Alternative Name: 
                DNS:d.alicdn.com
    Signature Algorithm: sha256WithRSAEncryption
         ac:5e:d7:7b:1a:b3:7b:fd:7f:a2:fe:57:c6:65:fa:54:a3:2e:
         d0:9a:cd:f8:f9:b2:de:c1:4d:c8:01:e6:9a:0e:de:00:24:9f:
         6e:76:85:c3:18:b3:32:fb:fb:39:90:be:ee:00:09:dd:70:cb:
         cf:d0:67:1f:3e:89:f1:f2:6f:09:7c:5f:7b:4f:fe:40:b8:8f:
         18:28:14:10:c6:06:e3:c9:16:c9:0e:69:fd:55:ee:8b:85:40:
         0f:03:1a:a0:6c:55:3a:21:17:07:52:fd:4d:47:7c:0b:34:2f:
         60:45:c0:df:33:0e:5a:d5:bc:66:d2:10:84:69:64:9f:99:77:
         ec:b6:3d:86:93:2e:e8:a7:c8:8a:fe:c9:a7:9b:aa:66:a2:94:
         0e:e3:90:cd:d3:d4:ce:74:65:d9:58:2c:d0:a2:cc:7f:dd:05:
         8e:a2:f2:cc:19:2e:a3:ae:a2:e6:6b:82:c4:9e:cf:5c:63:b8:
         39:52:46:8c:c5:a6:18:4d:59:86:b5:09:1b:65:b6:a2:53:01:
         d1:07:68:1c:67:5e:36:08:68:de:a5:6e:d1:aa:ec:c4:b2:68:
         c8:78:52:74:64:68:a3:49:d9:8a:86:40:26:41:5f:6f:c4:e6:
         e0:2b:80:7f:e9:ee:62:9e:ab:15:92:e1:df:3b:71:01:34:b3:
         af:0a:23:c1
-----BEGIN CERTIFICATE-----
MIIDYzCCAkugAwIBAgIBITANBgkqhkiG9w0BAQsFADCBrTELMAkGA1UEBhMCVVMx
EzARBgNVBAgMCkNhbGlmb3JuaWExFDASBgNVBAcMC0xvcyBBbmdlbGVzMRUwEwYD
VQQKDAxEaWdpQ2VydCBJbmMxGTAXBgNVBAsMEHd3dy5kaWdpY2VydC5jb20xIDAe
BgNVBAMMF0RpZ2lDZXJ0IEdsb2JhbCBSb290IENBMR8wHQYJKoZIhvcNAQkBFhB3
d3cuZGlnaWNlcnQuY29tMB4XDTI0MDMyMTA2MzAyNFoXDTM0MDMxOTA2MzAyNFow
gaIxCzAJBgNVBAYTAlVTMRMwEQYDVQQIDApDYWxpZm9ybmlhMRQwEgYDVQQHDAtM
b3MgQW5nZWxlczEVMBMGA1UECgwMRGlnaUNlcnQgSW5jMRkwFwYDVQQLDBB3d3cu
ZGlnaWNlcnQuY29tMRUwEwYDVQQDDAxkLmFsaWNkbi5jb20xHzAdBgkqhkiG9w0B
CQEWEHd3dy5kaWdpY2VydC5jb20wgZ8wDQYJKoZIhvcNAQEBBQADgY0AMIGJAoGB
ALqtTAkaPIVPYNWTvJ4S9JsW54vSKCmr+TiZ4YQ6G3BuoFut805lXBn7VokW+2g2
Qxo7tjJNY0OwxRBpPZYTf6rkdNSzYKqvW8dW9uFJVdmSunA3c0yRa8wQjljy4hsb
HnI+xrulygjYuyO7v4YC3hHp2XltYKbGDCzjNXLxdr+1AgMBAAGjGzAZMBcGA1Ud
EQQQMA6CDGQuYWxpY2RuLmNvbTANBgkqhkiG9w0BAQsFAAOCAQEArF7Xexqze/1/
ov5XxmX6VKMu0JrN+Pmy3sFNyAHmmg7eACSfbnaFwxizMvv7OZC+7gAJ3XDLz9Bn
Hz6J8fJvCXxfe0/+QLiPGCgUEMYG48kWyQ5p/VXui4VADwMaoGxVOiEXB1L9TUd8
CzQvYEXA3zMOWtW8ZtIQhGlkn5l37LY9hpMu6KfIiv7Jp5uqZqKUDuOQzdPUznRl
2Vgs0KLMf90FjqLyzBkuo66i5muCxJ7PXGO4OVJGjMWmGE1ZhrUJG2W2olMB0Qdo
HGdeNgho3qVu0arsxLJoyHhSdGRoo0nZioZAJkFfb8Tm4CuAf+nuYp6rFZLh3ztx
ATSzrwojwQ==
-----END CERTIFICATE-----
