Certificate:
    Data:
        Version: 3 (0x2)
        Serial Number: 56 (0x38)
        Signature Algorithm: sha256WithRSAEncryption
        Issuer: C=US, ST=California, L=Los Angeles, O=DigiCert Inc, OU=www.digicert.com, CN=DigiCert Global Root CA/emailAddress=www.digicert.com
        Validity
            Not Before: Mar 21 09:08:22 2024 GMT
            Not After : Mar 19 09:08:22 2034 GMT
        Subject: C=US, ST=California, L=Los Angeles, O=DigiCert Inc, OU=www.digicert.com, CN=datahub.zhihu.com/emailAddress=www.digicert.com
        Subject Public Key Info:
            Public Key Algorithm: rsaEncryption
                RSA Public-Key: (1024 bit)
                Modulus:
                    00:ba:ad:4c:09:1a:3c:85:4f:60:d5:93:bc:9e:12:
                    f4:9b:16:e7:8b:d2:28:29:ab:f9:38:99:e1:84:3a:
                    1b:70:6e:a0:5b:ad:f3:4e:65:5c:19:fb:56:89:16:
                    fb:68:36:43:1a:3b:b6:32:4d:63:43:b0:c5:10:69:
                    3d:96:13:7f:aa:e4:74:d4:b3:60:aa:af:5b:c7:56:
                    f6:e1:49:55:d9:92:ba:70:37:73:4c:91:6b:cc:10:
                    8e:58:f2:e2:1b:1b:1e:72:3e:c6:bb:a5:ca:08:d8:
                    bb:23:bb:bf:86:02:de:11:e9:d9:79:6d:60:a6:c6:
                    0c:2c:e3:35:72:f1:76:bf:b5
                Exponent: 65537 (0x10001)
        X509v3 extensions:
            X509v3 Subject Alternative Name: 
                DNS:datahub.zhihu.com
    Signature Algorithm: sha256WithRSAEncryption
         18:1e:b6:b6:33:ae:26:52:d1:e7:12:59:97:f2:7a:6b:aa:bc:
         57:0f:37:4b:e9:eb:86:f4:c4:71:ee:55:44:18:d1:9b:f4:02:
         32:cb:e9:1a:fb:f4:4c:7e:a4:0c:f7:a6:0e:b8:6c:a6:41:26:
         1d:c4:75:fc:e9:c2:48:e7:5a:9c:e8:cf:f2:cf:bd:65:3c:74:
         46:da:14:6a:be:07:96:a9:83:57:48:a8:f9:b0:ed:d7:c6:45:
         3e:9a:0c:45:94:55:b3:fb:7e:ec:a9:20:64:2e:d8:db:6b:b2:
         af:13:df:81:27:a2:d6:86:47:c3:52:67:9d:e6:c4:c9:38:69:
         bb:0a:9d:cc:b7:bc:ac:63:e8:e5:a9:19:ee:a4:fb:e8:69:79:
         b6:6e:17:a8:8a:d4:ea:2f:6f:4a:4d:fc:77:ce:9c:06:e8:1c:
         22:19:03:2f:b2:54:3b:4e:e9:e1:26:ff:34:2e:84:38:d0:dd:
         42:86:84:bb:f3:63:d7:5f:f3:9c:4d:4b:98:9e:d4:ca:1b:f9:
         1a:d9:f6:26:70:48:9a:b4:2d:79:04:9b:d2:ce:69:63:da:81:
         9e:30:6e:3d:81:6f:da:9e:74:85:ad:7a:94:46:4e:19:c6:04:
         db:5f:d7:81:24:be:71:2a:7e:f1:59:75:97:f8:87:26:8b:32:
         a9:9c:d0:28
-----BEGIN CERTIFICATE-----
MIIDbTCCAlWgAwIBAgIBODANBgkqhkiG9w0BAQsFADCBrTELMAkGA1UEBhMCVVMx
EzARBgNVBAgMCkNhbGlmb3JuaWExFDASBgNVBAcMC0xvcyBBbmdlbGVzMRUwEwYD
VQQKDAxEaWdpQ2VydCBJbmMxGTAXBgNVBAsMEHd3dy5kaWdpY2VydC5jb20xIDAe
BgNVBAMMF0RpZ2lDZXJ0IEdsb2JhbCBSb290IENBMR8wHQYJKoZIhvcNAQkBFhB3
d3cuZGlnaWNlcnQuY29tMB4XDTI0MDMyMTA5MDgyMloXDTM0MDMxOTA5MDgyMlow
gacxCzAJBgNVBAYTAlVTMRMwEQYDVQQIDApDYWxpZm9ybmlhMRQwEgYDVQQHDAtM
b3MgQW5nZWxlczEVMBMGA1UECgwMRGlnaUNlcnQgSW5jMRkwFwYDVQQLDBB3d3cu
ZGlnaWNlcnQuY29tMRowGAYDVQQDDBFkYXRhaHViLnpoaWh1LmNvbTEfMB0GCSqG
SIb3DQEJARYQd3d3LmRpZ2ljZXJ0LmNvbTCBnzANBgkqhkiG9w0BAQEFAAOBjQAw
gYkCgYEAuq1MCRo8hU9g1ZO8nhL0mxbni9IoKav5OJnhhDobcG6gW63zTmVcGftW
iRb7aDZDGju2Mk1jQ7DFEGk9lhN/quR01LNgqq9bx1b24UlV2ZK6cDdzTJFrzBCO
WPLiGxsecj7Gu6XKCNi7I7u/hgLeEenZeW1gpsYMLOM1cvF2v7UCAwEAAaMgMB4w
HAYDVR0RBBUwE4IRZGF0YWh1Yi56aGlodS5jb20wDQYJKoZIhvcNAQELBQADggEB
ABgetrYzriZS0ecSWZfyemuqvFcPN0vp64b0xHHuVUQY0Zv0AjLL6Rr79Ex+pAz3
pg64bKZBJh3EdfzpwkjnWpzoz/LPvWU8dEbaFGq+B5apg1dIqPmw7dfGRT6aDEWU
VbP7fuypIGQu2Ntrsq8T34EnotaGR8NSZ53mxMk4absKncy3vKxj6OWpGe6k++hp
ebZuF6iK1Oovb0pN/HfOnAboHCIZAy+yVDtO6eEm/zQuhDjQ3UKGhLvzY9df85xN
S5ie1Mob+RrZ9iZwSJq0LXkEm9LOaWPagZ4wbj2Bb9qedIWtepRGThnGBNtf14Ek
vnEqfvFZdZf4hyaLMqmc0Cg=
-----END CERTIFICATE-----
