Certificate:
    Data:
        Version: 3 (0x2)
        Serial Number: 3 (0x3)
        Signature Algorithm: sha256WithRSAEncryption
        Issuer: C=US, ST=California, L=Los Angeles, O=DigiCert Inc, OU=www.digicert.com, CN=DigiCert Global Root CA/emailAddress=www.digicert.com
        Validity
            Not Before: Mar 21 08:56:47 2024 GMT
            Not After : Mar 19 08:56:47 2034 GMT
        Subject: C=US, ST=California, L=Los Angeles, O=DigiCert Inc, OU=www.digicert.com, CN=debugqq.com/emailAddress=www.digicert.com
        Subject Public Key Info:
            Public Key Algorithm: rsaEncryption
                RSA Public-Key: (1024 bit)
                Modulus:
                    00:ba:ad:4c:09:1a:3c:85:4f:60:d5:93:bc:9e:12:
                    f4:9b:16:e7:8b:d2:28:29:ab:f9:38:99:e1:84:3a:
                    1b:70:6e:a0:5b:ad:f3:4e:65:5c:19:fb:56:89:16:
                    fb:68:36:43:1a:3b:b6:32:4d:63:43:b0:c5:10:69:
                    3d:96:13:7f:aa:e4:74:d4:b3:60:aa:af:5b:c7:56:
                    f6:e1:49:55:d9:92:ba:70:37:73:4c:91:6b:cc:10:
                    8e:58:f2:e2:1b:1b:1e:72:3e:c6:bb:a5:ca:08:d8:
                    bb:23:bb:bf:86:02:de:11:e9:d9:79:6d:60:a6:c6:
                    0c:2c:e3:35:72:f1:76:bf:b5
                Exponent: 65537 (0x10001)
        X509v3 extensions:
            X509v3 Subject Alternative Name: 
                DNS:debugqq.com
    Signature Algorithm: sha256WithRSAEncryption
         b2:70:c4:a8:85:d0:58:1b:1b:5c:40:e2:9d:a6:32:cd:84:e0:
         e5:4b:a2:49:92:96:91:be:92:0c:9d:95:ec:4a:12:82:20:fa:
         c4:0e:d3:e3:47:b0:aa:90:91:8f:13:e2:3e:b2:d4:4e:42:d3:
         7d:fb:88:df:0b:54:c7:88:bb:ca:80:a2:4b:b1:b7:eb:06:ca:
         58:1b:0d:63:5c:0e:2c:a6:89:27:5f:86:31:e3:66:76:8a:94:
         45:df:42:44:04:ab:f9:3e:a2:06:db:4b:bf:fb:9f:dd:c1:34:
         0b:65:36:20:70:1c:96:bd:cf:1b:a0:b4:86:84:a1:08:a1:02:
         3d:ac:be:22:c4:e0:3a:ed:f6:8c:27:ac:8c:c6:90:ae:ad:7c:
         e9:97:8c:bd:7c:8c:da:16:fe:b8:0c:cc:71:99:7a:1d:f1:23:
         a9:10:a7:a8:c1:e8:ac:94:3f:21:06:24:f1:fc:17:e8:32:58:
         09:46:a8:0e:a2:ba:80:c3:e4:a8:82:9a:3f:43:3a:4c:a5:44:
         37:2a:de:20:9d:9a:91:21:9d:97:16:13:a5:b0:0e:ab:ad:a5:
         6d:9c:25:6d:e2:74:a2:6f:07:f2:b0:68:53:4c:a2:d0:9a:0d:
         cd:94:76:c8:31:e3:21:6d:62:5a:0b:3a:f9:fa:19:4f:80:4a:
         12:36:16:20
-----BEGIN CERTIFICATE-----
MIIDYTCCAkmgAwIBAgIBAzANBgkqhkiG9w0BAQsFADCBrTELMAkGA1UEBhMCVVMx
EzARBgNVBAgMCkNhbGlmb3JuaWExFDASBgNVBAcMC0xvcyBBbmdlbGVzMRUwEwYD
VQQKDAxEaWdpQ2VydCBJbmMxGTAXBgNVBAsMEHd3dy5kaWdpY2VydC5jb20xIDAe
BgNVBAMMF0RpZ2lDZXJ0IEdsb2JhbCBSb290IENBMR8wHQYJKoZIhvcNAQkBFhB3
d3cuZGlnaWNlcnQuY29tMB4XDTI0MDMyMTA4NTY0N1oXDTM0MDMxOTA4NTY0N1ow
gaExCzAJBgNVBAYTAlVTMRMwEQYDVQQIDApDYWxpZm9ybmlhMRQwEgYDVQQHDAtM
b3MgQW5nZWxlczEVMBMGA1UECgwMRGlnaUNlcnQgSW5jMRkwFwYDVQQLDBB3d3cu
ZGlnaWNlcnQuY29tMRQwEgYDVQQDDAtkZWJ1Z3FxLmNvbTEfMB0GCSqGSIb3DQEJ
ARYQd3d3LmRpZ2ljZXJ0LmNvbTCBnzANBgkqhkiG9w0BAQEFAAOBjQAwgYkCgYEA
uq1MCRo8hU9g1ZO8nhL0mxbni9IoKav5OJnhhDobcG6gW63zTmVcGftWiRb7aDZD
Gju2Mk1jQ7DFEGk9lhN/quR01LNgqq9bx1b24UlV2ZK6cDdzTJFrzBCOWPLiGxse
cj7Gu6XKCNi7I7u/hgLeEenZeW1gpsYMLOM1cvF2v7UCAwEAAaMaMBgwFgYDVR0R
BA8wDYILZGVidWdxcS5jb20wDQYJKoZIhvcNAQELBQADggEBALJwxKiF0FgbG1xA
4p2mMs2E4OVLokmSlpG+kgydlexKEoIg+sQO0+NHsKqQkY8T4j6y1E5C0337iN8L
VMeIu8qAokuxt+sGylgbDWNcDiymiSdfhjHjZnaKlEXfQkQEq/k+ogbbS7/7n93B
NAtlNiBwHJa9zxugtIaEoQihAj2sviLE4Drt9ownrIzGkK6tfOmXjL18jNoW/rgM
zHGZeh3xI6kQp6jB6KyUPyEGJPH8F+gyWAlGqA6iuoDD5KiCmj9DOkylRDcq3iCd
mpEhnZcWE6WwDqutpW2cJW3idKJvB/KwaFNMotCaDc2Udsgx4yFtYloLOvn6GU+A
ShI2FiA=
-----END CERTIFICATE-----
