Certificate:
    Data:
        Version: 3 (0x2)
        Serial Number: 29 (0x1d)
        Signature Algorithm: sha256WithRSAEncryption
        Issuer: C=US, ST=California, L=Los Angeles, O=DigiCert Inc, OU=www.digicert.com, CN=DigiCert Global Root CA/emailAddress=www.digicert.com
        Validity
            Not Before: Mar 21 06:27:48 2024 GMT
            Not After : Mar 19 06:27:48 2034 GMT
        Subject: C=US, ST=California, L=Los Angeles, O=DigiCert Inc, OU=www.digicert.com, CN=disc801.prod.do.dsp.mp.microsoft.com/emailAddress=www.digicert.com
        Subject Public Key Info:
            Public Key Algorithm: rsaEncryption
                RSA Public-Key: (1024 bit)
                Modulus:
                    00:ba:ad:4c:09:1a:3c:85:4f:60:d5:93:bc:9e:12:
                    f4:9b:16:e7:8b:d2:28:29:ab:f9:38:99:e1:84:3a:
                    1b:70:6e:a0:5b:ad:f3:4e:65:5c:19:fb:56:89:16:
                    fb:68:36:43:1a:3b:b6:32:4d:63:43:b0:c5:10:69:
                    3d:96:13:7f:aa:e4:74:d4:b3:60:aa:af:5b:c7:56:
                    f6:e1:49:55:d9:92:ba:70:37:73:4c:91:6b:cc:10:
                    8e:58:f2:e2:1b:1b:1e:72:3e:c6:bb:a5:ca:08:d8:
                    bb:23:bb:bf:86:02:de:11:e9:d9:79:6d:60:a6:c6:
                    0c:2c:e3:35:72:f1:76:bf:b5
                Exponent: 65537 (0x10001)
        X509v3 extensions:
            X509v3 Subject Alternative Name: 
                DNS:disc801.prod.do.dsp.mp.microsoft.com
    Signature Algorithm: sha256WithRSAEncryption
         35:52:7c:b6:82:97:6a:5d:15:7e:13:39:65:1b:48:e8:c0:49:
         32:e5:82:0d:b4:05:a5:b6:e7:7e:22:ea:50:a4:96:0d:8d:5b:
         52:95:1d:6d:0c:0b:93:a0:fd:17:1d:45:09:e1:28:0f:e4:d1:
         0d:12:4b:d3:1c:85:b9:8a:9f:56:b7:16:43:6e:36:4b:ad:fb:
         d8:00:50:cf:39:bb:59:80:a2:f3:2d:86:53:02:e4:b0:48:4c:
         53:fd:03:4d:22:20:88:2c:df:f5:93:50:0d:6a:18:89:1a:2a:
         64:af:42:90:ac:28:93:c3:c9:13:a5:6d:3d:3c:08:04:72:ba:
         bc:8b:62:42:2a:9a:02:4e:32:9f:59:ac:50:75:89:2b:13:a9:
         d4:b0:b8:30:c3:c4:7b:ca:40:9f:13:35:20:15:de:9a:a5:0b:
         03:ef:17:50:cd:0d:ef:fe:4d:aa:f0:c5:04:54:36:b7:56:3e:
         b6:e1:d9:b0:09:06:7f:07:d4:98:40:61:07:49:1f:58:10:1c:
         4d:a3:5f:4a:8d:65:34:a6:ba:9d:0c:6e:f1:90:08:0a:da:57:
         ad:6a:d7:bf:f9:ba:85:4c:8b:38:72:26:83:e7:e9:d2:0e:6a:
         4a:17:e5:66:98:63:e8:f4:87:d2:c4:e9:4b:25:90:1a:27:f5:
         fd:2c:17:45
-----BEGIN CERTIFICATE-----
MIIDkzCCAnugAwIBAgIBHTANBgkqhkiG9w0BAQsFADCBrTELMAkGA1UEBhMCVVMx
EzARBgNVBAgMCkNhbGlmb3JuaWExFDASBgNVBAcMC0xvcyBBbmdlbGVzMRUwEwYD
VQQKDAxEaWdpQ2VydCBJbmMxGTAXBgNVBAsMEHd3dy5kaWdpY2VydC5jb20xIDAe
BgNVBAMMF0RpZ2lDZXJ0IEdsb2JhbCBSb290IENBMR8wHQYJKoZIhvcNAQkBFhB3
d3cuZGlnaWNlcnQuY29tMB4XDTI0MDMyMTA2Mjc0OFoXDTM0MDMxOTA2Mjc0OFow
gboxCzAJBgNVBAYTAlVTMRMwEQYDVQQIDApDYWxpZm9ybmlhMRQwEgYDVQQHDAtM
b3MgQW5nZWxlczEVMBMGA1UECgwMRGlnaUNlcnQgSW5jMRkwFwYDVQQLDBB3d3cu
ZGlnaWNlcnQuY29tMS0wKwYDVQQDDCRkaXNjODAxLnByb2QuZG8uZHNwLm1wLm1p
Y3Jvc29mdC5jb20xHzAdBgkqhkiG9w0BCQEWEHd3dy5kaWdpY2VydC5jb20wgZ8w
DQYJKoZIhvcNAQEBBQADgY0AMIGJAoGBALqtTAkaPIVPYNWTvJ4S9JsW54vSKCmr
+TiZ4YQ6G3BuoFut805lXBn7VokW+2g2Qxo7tjJNY0OwxRBpPZYTf6rkdNSzYKqv
W8dW9uFJVdmSunA3c0yRa8wQjljy4hsbHnI+xrulygjYuyO7v4YC3hHp2XltYKbG
DCzjNXLxdr+1AgMBAAGjMzAxMC8GA1UdEQQoMCaCJGRpc2M4MDEucHJvZC5kby5k
c3AubXAubWljcm9zb2Z0LmNvbTANBgkqhkiG9w0BAQsFAAOCAQEANVJ8toKXal0V
fhM5ZRtI6MBJMuWCDbQFpbbnfiLqUKSWDY1bUpUdbQwLk6D9Fx1FCeEoD+TRDRJL
0xyFuYqfVrcWQ242S6372ABQzzm7WYCi8y2GUwLksEhMU/0DTSIgiCzf9ZNQDWoY
iRoqZK9CkKwok8PJE6VtPTwIBHK6vItiQiqaAk4yn1msUHWJKxOp1LC4MMPEe8pA
nxM1IBXemqULA+8XUM0N7/5NqvDFBFQ2t1Y+tuHZsAkGfwfUmEBhB0kfWBAcTaNf
So1lNKa6nQxu8ZAICtpXrWrXv/m6hUyLOHImg+fp0g5qShflZphj6PSH0sTpSyWQ
Gif1/SwXRQ==
-----END CERTIFICATE-----
