Certificate:
    Data:
        Version: 3 (0x2)
        Serial Number: 30 (0x1e)
        Signature Algorithm: sha256WithRSAEncryption
        Issuer: C=US, ST=California, L=Los Angeles, O=DigiCert Inc, OU=www.digicert.com, CN=DigiCert Global Root CA/emailAddress=www.digicert.com
        Validity
            Not Before: Mar 21 09:00:44 2024 GMT
            Not After : Mar 19 09:00:44 2034 GMT
        Subject: C=US, ST=California, L=Los Angeles, O=DigiCert Inc, OU=www.digicert.com, CN=ecs.office.com/emailAddress=www.digicert.com
        Subject Public Key Info:
            Public Key Algorithm: rsaEncryption
                RSA Public-Key: (1024 bit)
                Modulus:
                    00:ba:ad:4c:09:1a:3c:85:4f:60:d5:93:bc:9e:12:
                    f4:9b:16:e7:8b:d2:28:29:ab:f9:38:99:e1:84:3a:
                    1b:70:6e:a0:5b:ad:f3:4e:65:5c:19:fb:56:89:16:
                    fb:68:36:43:1a:3b:b6:32:4d:63:43:b0:c5:10:69:
                    3d:96:13:7f:aa:e4:74:d4:b3:60:aa:af:5b:c7:56:
                    f6:e1:49:55:d9:92:ba:70:37:73:4c:91:6b:cc:10:
                    8e:58:f2:e2:1b:1b:1e:72:3e:c6:bb:a5:ca:08:d8:
                    bb:23:bb:bf:86:02:de:11:e9:d9:79:6d:60:a6:c6:
                    0c:2c:e3:35:72:f1:76:bf:b5
                Exponent: 65537 (0x10001)
        X509v3 extensions:
            X509v3 Subject Alternative Name: 
                DNS:ecs.office.com
    Signature Algorithm: sha256WithRSAEncryption
         56:60:1f:90:ac:37:7f:7d:c7:9f:04:86:d0:d7:7c:fb:86:23:
         f7:97:5d:54:f2:a5:8d:c6:f8:9c:23:fe:6a:13:c8:c8:c4:ba:
         f5:19:c7:b2:67:df:89:3e:b6:c5:e2:3e:e8:69:f7:5c:dd:45:
         31:53:a0:f4:d3:29:0e:cc:2d:52:7c:0d:3d:43:1f:49:d6:ff:
         74:cc:b7:62:d4:88:95:6c:a1:6a:8a:29:91:64:9b:85:ea:7f:
         54:52:15:75:c3:ce:be:53:2f:47:73:5a:0c:81:1e:e8:62:8c:
         5e:bf:61:9a:80:b5:5a:a5:de:8c:81:8c:dc:dc:01:4c:7c:c4:
         e8:d1:6a:2c:f6:f1:0f:12:47:89:6a:b4:25:d8:d1:6e:62:5d:
         92:86:61:d4:b4:1e:8c:0b:6b:90:b2:f7:73:2c:6b:40:50:61:
         be:19:1d:b4:f9:ca:e4:d3:78:d2:e8:e9:dc:9a:d4:ba:24:60:
         18:9e:e0:a8:86:6b:3a:d1:6a:64:61:42:3a:9e:da:75:fe:96:
         5c:18:01:f9:29:23:af:ab:d9:d6:84:a4:c6:10:5f:46:5e:b3:
         4c:48:16:51:33:3e:a9:1b:3d:c2:fa:f1:bb:01:96:a1:ef:69:
         63:d8:f8:60:73:5a:50:38:b4:8e:54:00:3e:f3:9a:85:50:37:
         48:5a:52:a6
-----BEGIN CERTIFICATE-----
MIIDZzCCAk+gAwIBAgIBHjANBgkqhkiG9w0BAQsFADCBrTELMAkGA1UEBhMCVVMx
EzARBgNVBAgMCkNhbGlmb3JuaWExFDASBgNVBAcMC0xvcyBBbmdlbGVzMRUwEwYD
VQQKDAxEaWdpQ2VydCBJbmMxGTAXBgNVBAsMEHd3dy5kaWdpY2VydC5jb20xIDAe
BgNVBAMMF0RpZ2lDZXJ0IEdsb2JhbCBSb290IENBMR8wHQYJKoZIhvcNAQkBFhB3
d3cuZGlnaWNlcnQuY29tMB4XDTI0MDMyMTA5MDA0NFoXDTM0MDMxOTA5MDA0NFow
gaQxCzAJBgNVBAYTAlVTMRMwEQYDVQQIDApDYWxpZm9ybmlhMRQwEgYDVQQHDAtM
b3MgQW5nZWxlczEVMBMGA1UECgwMRGlnaUNlcnQgSW5jMRkwFwYDVQQLDBB3d3cu
ZGlnaWNlcnQuY29tMRcwFQYDVQQDDA5lY3Mub2ZmaWNlLmNvbTEfMB0GCSqGSIb3
DQEJARYQd3d3LmRpZ2ljZXJ0LmNvbTCBnzANBgkqhkiG9w0BAQEFAAOBjQAwgYkC
gYEAuq1MCRo8hU9g1ZO8nhL0mxbni9IoKav5OJnhhDobcG6gW63zTmVcGftWiRb7
aDZDGju2Mk1jQ7DFEGk9lhN/quR01LNgqq9bx1b24UlV2ZK6cDdzTJFrzBCOWPLi
Gxsecj7Gu6XKCNi7I7u/hgLeEenZeW1gpsYMLOM1cvF2v7UCAwEAAaMdMBswGQYD
VR0RBBIwEIIOZWNzLm9mZmljZS5jb20wDQYJKoZIhvcNAQELBQADggEBAFZgH5Cs
N399x58EhtDXfPuGI/eXXVTypY3G+Jwj/moTyMjEuvUZx7Jn34k+tsXiPuhp91zd
RTFToPTTKQ7MLVJ8DT1DH0nW/3TMt2LUiJVsoWqKKZFkm4Xqf1RSFXXDzr5TL0dz
WgyBHuhijF6/YZqAtVql3oyBjNzcAUx8xOjRaiz28Q8SR4lqtCXY0W5iXZKGYdS0
HowLa5Cy93Msa0BQYb4ZHbT5yuTTeNLo6dya1LokYBie4KiGazrRamRhQjqe2nX+
llwYAfkpI6+r2daEpMYQX0Zes0xIFlEzPqkbPcL68bsBlqHvaWPY+GBzWlA4tI5U
AD7zmoVQN0haUqY=
-----END CERTIFICATE-----
