Certificate:
    Data:
        Version: 3 (0x2)
        Serial Number: 66 (0x42)
        Signature Algorithm: sha256WithRSAEncryption
        Issuer: C=US, ST=California, L=Los Angeles, O=DigiCert Inc, OU=www.digicert.com, CN=DigiCert Global Root CA/emailAddress=www.digicert.com
        Validity
            Not Before: Mar 21 09:09:03 2024 GMT
            Not After : Mar 19 09:09:03 2034 GMT
        Subject: C=US, ST=California, L=Los Angeles, O=DigiCert Inc, OU=www.digicert.com, CN=eva2.csdn.net/emailAddress=www.digicert.com
        Subject Public Key Info:
            Public Key Algorithm: rsaEncryption
                RSA Public-Key: (1024 bit)
                Modulus:
                    00:ba:ad:4c:09:1a:3c:85:4f:60:d5:93:bc:9e:12:
                    f4:9b:16:e7:8b:d2:28:29:ab:f9:38:99:e1:84:3a:
                    1b:70:6e:a0:5b:ad:f3:4e:65:5c:19:fb:56:89:16:
                    fb:68:36:43:1a:3b:b6:32:4d:63:43:b0:c5:10:69:
                    3d:96:13:7f:aa:e4:74:d4:b3:60:aa:af:5b:c7:56:
                    f6:e1:49:55:d9:92:ba:70:37:73:4c:91:6b:cc:10:
                    8e:58:f2:e2:1b:1b:1e:72:3e:c6:bb:a5:ca:08:d8:
                    bb:23:bb:bf:86:02:de:11:e9:d9:79:6d:60:a6:c6:
                    0c:2c:e3:35:72:f1:76:bf:b5
                Exponent: 65537 (0x10001)
        X509v3 extensions:
            X509v3 Subject Alternative Name: 
                DNS:eva2.csdn.net
    Signature Algorithm: sha256WithRSAEncryption
         1a:33:4d:f9:9a:3a:2d:bf:48:1a:0d:9d:27:44:f9:ff:bd:23:
         7c:53:9c:7d:53:c3:72:6a:ab:c2:84:f7:e5:1c:1f:46:35:24:
         22:b2:ee:c7:48:45:b5:ce:09:6e:9e:c8:be:72:60:18:41:5f:
         f6:e5:84:f1:6a:a5:0d:ba:62:69:f2:d6:55:23:42:92:3e:d1:
         0e:04:23:ad:f6:2e:3e:dc:8b:8b:5f:56:ef:a9:5e:8b:3b:0b:
         5c:c6:e1:1a:29:ed:5a:60:c9:b0:5a:e5:22:ed:af:e2:ba:fd:
         a2:8a:d6:67:43:08:ff:2f:86:df:87:9d:9d:5d:a0:b8:58:82:
         3a:5b:10:ca:e3:bb:f3:cb:6a:8a:8f:92:e6:b5:b8:7b:fc:6e:
         ff:d6:eb:55:2b:8d:b8:1b:68:44:83:8a:2d:72:f2:4c:0b:2e:
         bb:3a:a2:81:c9:e0:40:a9:a9:84:c4:3f:5b:d8:19:6b:c5:ad:
         f5:59:e9:7b:d9:07:16:f2:ad:85:59:6a:e3:ce:c8:6c:fb:47:
         3f:d0:0f:be:ae:e6:ac:35:22:54:1a:25:ea:78:8f:33:90:10:
         b6:a0:e8:5c:d5:be:19:6c:1d:ef:1f:c2:3e:df:53:c3:2a:c7:
         81:d2:6c:ea:1d:f4:1b:22:51:07:14:ea:ff:b9:3c:5e:bc:62:
         35:06:c4:48
-----BEGIN CERTIFICATE-----
MIIDZTCCAk2gAwIBAgIBQjANBgkqhkiG9w0BAQsFADCBrTELMAkGA1UEBhMCVVMx
EzARBgNVBAgMCkNhbGlmb3JuaWExFDASBgNVBAcMC0xvcyBBbmdlbGVzMRUwEwYD
VQQKDAxEaWdpQ2VydCBJbmMxGTAXBgNVBAsMEHd3dy5kaWdpY2VydC5jb20xIDAe
BgNVBAMMF0RpZ2lDZXJ0IEdsb2JhbCBSb290IENBMR8wHQYJKoZIhvcNAQkBFhB3
d3cuZGlnaWNlcnQuY29tMB4XDTI0MDMyMTA5MDkwM1oXDTM0MDMxOTA5MDkwM1ow
gaMxCzAJBgNVBAYTAlVTMRMwEQYDVQQIDApDYWxpZm9ybmlhMRQwEgYDVQQHDAtM
b3MgQW5nZWxlczEVMBMGA1UECgwMRGlnaUNlcnQgSW5jMRkwFwYDVQQLDBB3d3cu
ZGlnaWNlcnQuY29tMRYwFAYDVQQDDA1ldmEyLmNzZG4ubmV0MR8wHQYJKoZIhvcN
AQkBFhB3d3cuZGlnaWNlcnQuY29tMIGfMA0GCSqGSIb3DQEBAQUAA4GNADCBiQKB
gQC6rUwJGjyFT2DVk7yeEvSbFueL0igpq/k4meGEOhtwbqBbrfNOZVwZ+1aJFvto
NkMaO7YyTWNDsMUQaT2WE3+q5HTUs2Cqr1vHVvbhSVXZkrpwN3NMkWvMEI5Y8uIb
Gx5yPsa7pcoI2Lsju7+GAt4R6dl5bWCmxgws4zVy8Xa/tQIDAQABoxwwGjAYBgNV
HREEETAPgg1ldmEyLmNzZG4ubmV0MA0GCSqGSIb3DQEBCwUAA4IBAQAaM035mjot
v0gaDZ0nRPn/vSN8U5x9U8NyaqvChPflHB9GNSQisu7HSEW1zglunsi+cmAYQV/2
5YTxaqUNumJp8tZVI0KSPtEOBCOt9i4+3IuLX1bvqV6LOwtcxuEaKe1aYMmwWuUi
7a/iuv2iitZnQwj/L4bfh52dXaC4WII6WxDK47vzy2qKj5Lmtbh7/G7/1utVK424
G2hEg4otcvJMCy67OqKByeBAqamExD9b2Blrxa31Wel72QcW8q2FWWrjzshs+0c/
0A++ruasNSJUGiXqeI8zkBC2oOhc1b4ZbB3vH8I+31PDKseB0mzqHfQbIlEHFOr/
uTxevGI1BsRI
-----END CERTIFICATE-----
