Certificate:
    Data:
        Version: 3 (0x2)
        Serial Number: 16 (0x10)
        Signature Algorithm: sha256WithRSAEncryption
        Issuer: C=US, ST=California, L=Los Angeles, O=DigiCert Inc, OU=www.digicert.com, CN=DigiCert Global Root CA/emailAddress=www.digicert.com
        Validity
            Not Before: Mar 21 08:57:19 2024 GMT
            Not After : Mar 19 08:57:19 2034 GMT
        Subject: C=US, ST=California, L=Los Angeles, O=DigiCert Inc, OU=www.digicert.com, CN=fourier.taobao.com/emailAddress=www.digicert.com
        Subject Public Key Info:
            Public Key Algorithm: rsaEncryption
                RSA Public-Key: (1024 bit)
                Modulus:
                    00:ba:ad:4c:09:1a:3c:85:4f:60:d5:93:bc:9e:12:
                    f4:9b:16:e7:8b:d2:28:29:ab:f9:38:99:e1:84:3a:
                    1b:70:6e:a0:5b:ad:f3:4e:65:5c:19:fb:56:89:16:
                    fb:68:36:43:1a:3b:b6:32:4d:63:43:b0:c5:10:69:
                    3d:96:13:7f:aa:e4:74:d4:b3:60:aa:af:5b:c7:56:
                    f6:e1:49:55:d9:92:ba:70:37:73:4c:91:6b:cc:10:
                    8e:58:f2:e2:1b:1b:1e:72:3e:c6:bb:a5:ca:08:d8:
                    bb:23:bb:bf:86:02:de:11:e9:d9:79:6d:60:a6:c6:
                    0c:2c:e3:35:72:f1:76:bf:b5
                Exponent: 65537 (0x10001)
        X509v3 extensions:
            X509v3 Subject Alternative Name: 
                DNS:fourier.taobao.com
    Signature Algorithm: sha256WithRSAEncryption
         11:1d:72:fb:2e:e7:5e:45:ff:c4:1c:39:9c:8e:7e:80:94:0e:
         dc:b5:7c:be:30:71:c3:08:de:46:ff:c6:4b:f7:3d:61:e2:6d:
         80:14:3a:3c:1d:2c:f4:e4:67:4f:6e:2a:36:71:ea:1a:72:da:
         e9:1e:a2:fa:46:3e:68:97:1e:c6:ef:fc:99:7e:2b:73:59:b1:
         34:9f:81:83:e5:dd:18:f9:f1:17:23:b8:7c:15:4b:d5:e3:bc:
         48:3a:d8:ba:a7:d6:1e:e0:29:fe:73:a2:9c:97:3a:40:72:2e:
         c9:97:fe:5d:36:9e:8c:b7:85:86:81:cc:f8:92:b8:a8:09:29:
         f9:64:e2:bf:4e:2b:61:27:eb:af:3a:ca:1a:cf:95:60:43:bc:
         15:58:06:e2:26:81:af:3f:c0:cc:41:6a:7c:cf:92:40:fb:d2:
         9d:85:aa:55:9c:b1:20:3a:f9:ad:8f:a1:61:3c:67:fb:62:76:
         5a:9a:2e:15:39:14:77:13:46:37:9c:a8:97:3a:3d:6c:d2:c6:
         0f:2a:e4:ac:cf:f1:f1:e5:09:08:3b:71:8e:35:62:ba:95:9c:
         53:ee:a0:ae:08:9b:9a:3a:6d:b7:bd:fa:3c:df:49:50:8a:3f:
         97:bd:8c:fa:54:d8:88:5a:a4:42:db:41:b8:d3:95:23:b2:e1:
         0d:0b:ad:32
-----BEGIN CERTIFICATE-----
MIIDbzCCAlegAwIBAgIBEDANBgkqhkiG9w0BAQsFADCBrTELMAkGA1UEBhMCVVMx
EzARBgNVBAgMCkNhbGlmb3JuaWExFDASBgNVBAcMC0xvcyBBbmdlbGVzMRUwEwYD
VQQKDAxEaWdpQ2VydCBJbmMxGTAXBgNVBAsMEHd3dy5kaWdpY2VydC5jb20xIDAe
BgNVBAMMF0RpZ2lDZXJ0IEdsb2JhbCBSb290IENBMR8wHQYJKoZIhvcNAQkBFhB3
d3cuZGlnaWNlcnQuY29tMB4XDTI0MDMyMTA4NTcxOVoXDTM0MDMxOTA4NTcxOVow
gagxCzAJBgNVBAYTAlVTMRMwEQYDVQQIDApDYWxpZm9ybmlhMRQwEgYDVQQHDAtM
b3MgQW5nZWxlczEVMBMGA1UECgwMRGlnaUNlcnQgSW5jMRkwFwYDVQQLDBB3d3cu
ZGlnaWNlcnQuY29tMRswGQYDVQQDDBJmb3VyaWVyLnRhb2Jhby5jb20xHzAdBgkq
hkiG9w0BCQEWEHd3dy5kaWdpY2VydC5jb20wgZ8wDQYJKoZIhvcNAQEBBQADgY0A
MIGJAoGBALqtTAkaPIVPYNWTvJ4S9JsW54vSKCmr+TiZ4YQ6G3BuoFut805lXBn7
VokW+2g2Qxo7tjJNY0OwxRBpPZYTf6rkdNSzYKqvW8dW9uFJVdmSunA3c0yRa8wQ
jljy4hsbHnI+xrulygjYuyO7v4YC3hHp2XltYKbGDCzjNXLxdr+1AgMBAAGjITAf
MB0GA1UdEQQWMBSCEmZvdXJpZXIudGFvYmFvLmNvbTANBgkqhkiG9w0BAQsFAAOC
AQEAER1y+y7nXkX/xBw5nI5+gJQO3LV8vjBxwwjeRv/GS/c9YeJtgBQ6PB0s9ORn
T24qNnHqGnLa6R6i+kY+aJcexu/8mX4rc1mxNJ+Bg+XdGPnxFyO4fBVL1eO8SDrY
uqfWHuAp/nOinJc6QHIuyZf+XTaejLeFhoHM+JK4qAkp+WTiv04rYSfrrzrKGs+V
YEO8FVgG4iaBrz/AzEFqfM+SQPvSnYWqVZyxIDr5rY+hYTxn+2J2WpouFTkUdxNG
N5yolzo9bNLGDyrkrM/x8eUJCDtxjjViupWcU+6grgibmjptt736PN9JUIo/l72M
+lTYiFqkQttBuNOVI7LhDQutMg==
-----END CERTIFICATE-----
