Certificate:
    Data:
        Version: 3 (0x2)
        Serial Number: 15 (0xf)
        Signature Algorithm: sha256WithRSAEncryption
        Issuer: C=US, ST=California, L=Los Angeles, O=DigiCert Inc, OU=www.digicert.com, CN=DigiCert Global Root CA/emailAddress=www.digicert.com
        Validity
            Not Before: Mar 21 08:57:18 2024 GMT
            Not After : Mar 19 08:57:18 2034 GMT
        Subject: C=US, ST=California, L=Los Angeles, O=DigiCert Inc, OU=www.digicert.com, CN=g.alicdn.com/emailAddress=www.digicert.com
        Subject Public Key Info:
            Public Key Algorithm: rsaEncryption
                RSA Public-Key: (1024 bit)
                Modulus:
                    00:ba:ad:4c:09:1a:3c:85:4f:60:d5:93:bc:9e:12:
                    f4:9b:16:e7:8b:d2:28:29:ab:f9:38:99:e1:84:3a:
                    1b:70:6e:a0:5b:ad:f3:4e:65:5c:19:fb:56:89:16:
                    fb:68:36:43:1a:3b:b6:32:4d:63:43:b0:c5:10:69:
                    3d:96:13:7f:aa:e4:74:d4:b3:60:aa:af:5b:c7:56:
                    f6:e1:49:55:d9:92:ba:70:37:73:4c:91:6b:cc:10:
                    8e:58:f2:e2:1b:1b:1e:72:3e:c6:bb:a5:ca:08:d8:
                    bb:23:bb:bf:86:02:de:11:e9:d9:79:6d:60:a6:c6:
                    0c:2c:e3:35:72:f1:76:bf:b5
                Exponent: 65537 (0x10001)
        X509v3 extensions:
            X509v3 Subject Alternative Name: 
                DNS:g.alicdn.com
    Signature Algorithm: sha256WithRSAEncryption
         1b:88:20:24:4a:d6:a9:14:c3:ac:f5:36:ef:be:71:aa:ae:93:
         8d:ab:22:67:5c:90:c1:67:13:1e:15:63:8c:8b:e8:36:3d:f0:
         9d:dd:42:03:13:8a:cf:97:95:a0:13:2d:1f:6b:9f:c7:23:57:
         75:c4:56:ab:21:c1:7f:43:91:25:d5:44:63:9c:2d:ca:a8:bd:
         0b:66:71:22:c6:4d:81:07:7e:96:30:8f:7e:ce:91:75:76:70:
         5a:38:84:0d:cc:53:fa:b7:8c:04:2a:83:22:2a:ed:52:25:71:
         52:3c:fe:75:85:ca:93:f8:ab:db:52:78:92:4c:3b:5d:02:71:
         c9:57:25:e3:d5:c8:83:d3:c3:3f:e5:ca:ab:11:33:64:1a:fa:
         f2:d7:85:7d:40:9a:d2:2d:07:c2:f2:85:f8:95:74:37:b2:13:
         ed:bb:7b:b4:f5:f1:41:df:af:bc:9d:c5:d3:8d:19:ab:d9:b6:
         f0:40:09:44:a3:42:7b:de:d8:b7:36:e4:61:f5:50:f1:c3:68:
         2f:55:f3:fe:5e:2d:7f:60:df:bd:aa:07:8d:d0:3d:e0:8d:e3:
         ea:22:7f:4a:93:c2:08:7e:6d:b8:f6:a7:2f:1a:a9:41:4e:ea:
         97:c8:fd:c7:f4:d1:cf:51:3f:bf:ab:fa:f1:64:e8:81:18:a4:
         54:41:f3:ef
-----BEGIN CERTIFICATE-----
MIIDYzCCAkugAwIBAgIBDzANBgkqhkiG9w0BAQsFADCBrTELMAkGA1UEBhMCVVMx
EzARBgNVBAgMCkNhbGlmb3JuaWExFDASBgNVBAcMC0xvcyBBbmdlbGVzMRUwEwYD
VQQKDAxEaWdpQ2VydCBJbmMxGTAXBgNVBAsMEHd3dy5kaWdpY2VydC5jb20xIDAe
BgNVBAMMF0RpZ2lDZXJ0IEdsb2JhbCBSb290IENBMR8wHQYJKoZIhvcNAQkBFhB3
d3cuZGlnaWNlcnQuY29tMB4XDTI0MDMyMTA4NTcxOFoXDTM0MDMxOTA4NTcxOFow
gaIxCzAJBgNVBAYTAlVTMRMwEQYDVQQIDApDYWxpZm9ybmlhMRQwEgYDVQQHDAtM
b3MgQW5nZWxlczEVMBMGA1UECgwMRGlnaUNlcnQgSW5jMRkwFwYDVQQLDBB3d3cu
ZGlnaWNlcnQuY29tMRUwEwYDVQQDDAxnLmFsaWNkbi5jb20xHzAdBgkqhkiG9w0B
CQEWEHd3dy5kaWdpY2VydC5jb20wgZ8wDQYJKoZIhvcNAQEBBQADgY0AMIGJAoGB
ALqtTAkaPIVPYNWTvJ4S9JsW54vSKCmr+TiZ4YQ6G3BuoFut805lXBn7VokW+2g2
Qxo7tjJNY0OwxRBpPZYTf6rkdNSzYKqvW8dW9uFJVdmSunA3c0yRa8wQjljy4hsb
HnI+xrulygjYuyO7v4YC3hHp2XltYKbGDCzjNXLxdr+1AgMBAAGjGzAZMBcGA1Ud
EQQQMA6CDGcuYWxpY2RuLmNvbTANBgkqhkiG9w0BAQsFAAOCAQEAG4ggJErWqRTD
rPU2775xqq6TjasiZ1yQwWcTHhVjjIvoNj3wnd1CAxOKz5eVoBMtH2ufxyNXdcRW
qyHBf0ORJdVEY5wtyqi9C2ZxIsZNgQd+ljCPfs6RdXZwWjiEDcxT+reMBCqDIirt
UiVxUjz+dYXKk/ir21J4kkw7XQJxyVcl49XIg9PDP+XKqxEzZBr68teFfUCa0i0H
wvKF+JV0N7IT7bt7tPXxQd+vvJ3F040Zq9m28EAJRKNCe97YtzbkYfVQ8cNoL1Xz
/l4tf2DfvaoHjdA94I3j6iJ/SpPCCH5tuPanLxqpQU7ql8j9x/TRz1E/v6v68WTo
gRikVEHz7w==
-----END CERTIFICATE-----
