Certificate:
    Data:
        Version: 3 (0x2)
        Serial Number: 9 (0x9)
        Signature Algorithm: sha256WithRSAEncryption
        Issuer: C=US, ST=California, L=Los Angeles, O=DigiCert Inc, OU=www.digicert.com, CN=DigiCert Global Root CA/emailAddress=www.digicert.com
        Validity
            Not Before: Mar 21 08:56:56 2024 GMT
            Not After : Mar 19 08:56:56 2034 GMT
        Subject: C=US, ST=California, L=Los Angeles, O=DigiCert Inc, OU=www.digicert.com, CN=gm.mmstat.com/emailAddress=www.digicert.com
        Subject Public Key Info:
            Public Key Algorithm: rsaEncryption
                RSA Public-Key: (1024 bit)
                Modulus:
                    00:ba:ad:4c:09:1a:3c:85:4f:60:d5:93:bc:9e:12:
                    f4:9b:16:e7:8b:d2:28:29:ab:f9:38:99:e1:84:3a:
                    1b:70:6e:a0:5b:ad:f3:4e:65:5c:19:fb:56:89:16:
                    fb:68:36:43:1a:3b:b6:32:4d:63:43:b0:c5:10:69:
                    3d:96:13:7f:aa:e4:74:d4:b3:60:aa:af:5b:c7:56:
                    f6:e1:49:55:d9:92:ba:70:37:73:4c:91:6b:cc:10:
                    8e:58:f2:e2:1b:1b:1e:72:3e:c6:bb:a5:ca:08:d8:
                    bb:23:bb:bf:86:02:de:11:e9:d9:79:6d:60:a6:c6:
                    0c:2c:e3:35:72:f1:76:bf:b5
                Exponent: 65537 (0x10001)
        X509v3 extensions:
            X509v3 Subject Alternative Name: 
                DNS:gm.mmstat.com
    Signature Algorithm: sha256WithRSAEncryption
         0d:0d:35:45:4a:3b:e9:72:80:66:38:af:2c:63:60:8c:1e:42:
         30:42:48:b5:04:91:5f:4c:90:9e:e7:8e:44:e2:4b:1c:2d:b2:
         e5:b4:c1:3c:3b:d4:e2:50:58:72:75:b0:09:4e:ca:1a:a2:01:
         ca:98:66:15:48:a0:6d:9b:32:b2:36:f8:a1:6d:ce:96:64:ff:
         ac:d3:6e:ee:62:ce:4a:c7:f2:03:19:11:9b:12:11:72:2e:66:
         2a:df:38:7d:e8:4d:cf:10:df:03:5c:ba:64:6b:82:60:ed:7e:
         01:05:3d:46:1c:3b:b3:d8:f6:98:07:80:97:30:56:c3:3d:91:
         da:4c:fd:80:1b:b3:69:a6:c0:b6:9f:b4:6c:90:d3:6d:bd:04:
         9b:32:19:89:c1:53:62:7b:29:72:3c:07:27:e8:1e:ff:f4:e3:
         0e:87:ec:98:00:15:c1:0d:35:34:b5:87:86:b3:6e:7a:a0:4d:
         c8:4c:98:6b:1e:3f:ef:82:40:ef:21:e8:f5:4a:93:70:81:e3:
         13:4f:d6:68:ea:46:37:c9:04:be:20:64:b0:82:b3:3c:77:23:
         e4:eb:8b:2c:df:e5:d6:e3:da:d0:7d:f7:a8:ea:d2:1a:9e:ea:
         87:17:44:d1:6b:7b:2e:4b:36:29:fc:25:79:d1:85:f7:48:66:
         22:5f:3e:27
-----BEGIN CERTIFICATE-----
MIIDZTCCAk2gAwIBAgIBCTANBgkqhkiG9w0BAQsFADCBrTELMAkGA1UEBhMCVVMx
EzARBgNVBAgMCkNhbGlmb3JuaWExFDASBgNVBAcMC0xvcyBBbmdlbGVzMRUwEwYD
VQQKDAxEaWdpQ2VydCBJbmMxGTAXBgNVBAsMEHd3dy5kaWdpY2VydC5jb20xIDAe
BgNVBAMMF0RpZ2lDZXJ0IEdsb2JhbCBSb290IENBMR8wHQYJKoZIhvcNAQkBFhB3
d3cuZGlnaWNlcnQuY29tMB4XDTI0MDMyMTA4NTY1NloXDTM0MDMxOTA4NTY1Nlow
gaMxCzAJBgNVBAYTAlVTMRMwEQYDVQQIDApDYWxpZm9ybmlhMRQwEgYDVQQHDAtM
b3MgQW5nZWxlczEVMBMGA1UECgwMRGlnaUNlcnQgSW5jMRkwFwYDVQQLDBB3d3cu
ZGlnaWNlcnQuY29tMRYwFAYDVQQDDA1nbS5tbXN0YXQuY29tMR8wHQYJKoZIhvcN
AQkBFhB3d3cuZGlnaWNlcnQuY29tMIGfMA0GCSqGSIb3DQEBAQUAA4GNADCBiQKB
gQC6rUwJGjyFT2DVk7yeEvSbFueL0igpq/k4meGEOhtwbqBbrfNOZVwZ+1aJFvto
NkMaO7YyTWNDsMUQaT2WE3+q5HTUs2Cqr1vHVvbhSVXZkrpwN3NMkWvMEI5Y8uIb
Gx5yPsa7pcoI2Lsju7+GAt4R6dl5bWCmxgws4zVy8Xa/tQIDAQABoxwwGjAYBgNV
HREEETAPgg1nbS5tbXN0YXQuY29tMA0GCSqGSIb3DQEBCwUAA4IBAQANDTVFSjvp
coBmOK8sY2CMHkIwQki1BJFfTJCe545E4kscLbLltME8O9TiUFhydbAJTsoaogHK
mGYVSKBtmzKyNvihbc6WZP+s027uYs5Kx/IDGRGbEhFyLmYq3zh96E3PEN8DXLpk
a4Jg7X4BBT1GHDuz2PaYB4CXMFbDPZHaTP2AG7NppsC2n7RskNNtvQSbMhmJwVNi
eylyPAcn6B7/9OMOh+yYABXBDTU0tYeGs256oE3ITJhrHj/vgkDvIej1SpNwgeMT
T9Zo6kY3yQS+IGSwgrM8dyPk64ss3+XW49rQffeo6tIanuqHF0TRa3suSzYp/CV5
0YX3SGYiXz4n
-----END CERTIFICATE-----
