Certificate:
    Data:
        Version: 3 (0x2)
        Serial Number: 36 (0x24)
        Signature Algorithm: sha256WithRSAEncryption
        Issuer: C=US, ST=California, L=Los Angeles, O=DigiCert Inc, OU=www.digicert.com, CN=DigiCert Global Root CA/emailAddress=www.digicert.com
        Validity
            Not Before: Mar 21 06:30:31 2024 GMT
            Not After : Mar 19 06:30:31 2034 GMT
        Subject: C=US, ST=California, L=Los Angeles, O=DigiCert Inc, OU=www.digicert.com, CN=gm.mmstat.com/emailAddress=www.digicert.com
        Subject Public Key Info:
            Public Key Algorithm: rsaEncryption
                RSA Public-Key: (1024 bit)
                Modulus:
                    00:ba:ad:4c:09:1a:3c:85:4f:60:d5:93:bc:9e:12:
                    f4:9b:16:e7:8b:d2:28:29:ab:f9:38:99:e1:84:3a:
                    1b:70:6e:a0:5b:ad:f3:4e:65:5c:19:fb:56:89:16:
                    fb:68:36:43:1a:3b:b6:32:4d:63:43:b0:c5:10:69:
                    3d:96:13:7f:aa:e4:74:d4:b3:60:aa:af:5b:c7:56:
                    f6:e1:49:55:d9:92:ba:70:37:73:4c:91:6b:cc:10:
                    8e:58:f2:e2:1b:1b:1e:72:3e:c6:bb:a5:ca:08:d8:
                    bb:23:bb:bf:86:02:de:11:e9:d9:79:6d:60:a6:c6:
                    0c:2c:e3:35:72:f1:76:bf:b5
                Exponent: 65537 (0x10001)
        X509v3 extensions:
            X509v3 Subject Alternative Name: 
                DNS:gm.mmstat.com
    Signature Algorithm: sha256WithRSAEncryption
         40:27:81:0b:ad:9b:be:22:30:1e:5a:ab:eb:92:5e:56:16:5a:
         bb:d9:ec:3c:22:67:05:1b:1e:ca:20:e4:73:4c:f7:94:50:10:
         4c:a4:7a:7d:87:21:98:5a:f0:4b:58:7d:1b:5c:34:6a:f7:ef:
         a5:c8:4b:fa:64:d7:c8:5f:22:29:d6:28:ef:68:69:2f:80:7e:
         f5:a5:8c:2a:a0:06:f8:9a:4c:9e:f2:ab:e3:81:46:67:a7:de:
         d4:16:27:db:db:24:fe:25:5e:f5:b0:ef:0f:b7:c0:6d:44:7a:
         0d:b6:d9:ba:f1:25:78:bf:05:86:53:3d:90:cb:f7:15:db:7e:
         64:48:ea:0f:a4:7a:be:50:f7:39:df:12:f0:66:72:23:73:06:
         b2:39:b7:42:a3:b0:c5:86:5b:27:32:73:5a:fd:c6:a2:37:44:
         cf:2a:b0:24:01:e5:eb:87:4d:e2:40:48:69:a1:32:3e:8c:ee:
         40:6c:2d:69:27:dd:67:54:9b:4f:f3:de:9d:7b:2c:0f:40:39:
         8a:4e:6b:5a:1f:44:b4:ee:1b:9c:16:a7:ff:a6:f0:d9:f6:94:
         4e:3d:e9:9f:a0:31:e1:85:88:14:47:fd:5e:d2:26:89:4f:61:
         69:05:f7:73:8f:eb:db:a4:71:2d:89:8a:92:be:22:ed:4f:3d:
         96:ee:52:73
-----BEGIN CERTIFICATE-----
MIIDZTCCAk2gAwIBAgIBJDANBgkqhkiG9w0BAQsFADCBrTELMAkGA1UEBhMCVVMx
EzARBgNVBAgMCkNhbGlmb3JuaWExFDASBgNVBAcMC0xvcyBBbmdlbGVzMRUwEwYD
VQQKDAxEaWdpQ2VydCBJbmMxGTAXBgNVBAsMEHd3dy5kaWdpY2VydC5jb20xIDAe
BgNVBAMMF0RpZ2lDZXJ0IEdsb2JhbCBSb290IENBMR8wHQYJKoZIhvcNAQkBFhB3
d3cuZGlnaWNlcnQuY29tMB4XDTI0MDMyMTA2MzAzMVoXDTM0MDMxOTA2MzAzMVow
gaMxCzAJBgNVBAYTAlVTMRMwEQYDVQQIDApDYWxpZm9ybmlhMRQwEgYDVQQHDAtM
b3MgQW5nZWxlczEVMBMGA1UECgwMRGlnaUNlcnQgSW5jMRkwFwYDVQQLDBB3d3cu
ZGlnaWNlcnQuY29tMRYwFAYDVQQDDA1nbS5tbXN0YXQuY29tMR8wHQYJKoZIhvcN
AQkBFhB3d3cuZGlnaWNlcnQuY29tMIGfMA0GCSqGSIb3DQEBAQUAA4GNADCBiQKB
gQC6rUwJGjyFT2DVk7yeEvSbFueL0igpq/k4meGEOhtwbqBbrfNOZVwZ+1aJFvto
NkMaO7YyTWNDsMUQaT2WE3+q5HTUs2Cqr1vHVvbhSVXZkrpwN3NMkWvMEI5Y8uIb
Gx5yPsa7pcoI2Lsju7+GAt4R6dl5bWCmxgws4zVy8Xa/tQIDAQABoxwwGjAYBgNV
HREEETAPgg1nbS5tbXN0YXQuY29tMA0GCSqGSIb3DQEBCwUAA4IBAQBAJ4ELrZu+
IjAeWqvrkl5WFlq72ew8ImcFGx7KIORzTPeUUBBMpHp9hyGYWvBLWH0bXDRq9++l
yEv6ZNfIXyIp1ijvaGkvgH71pYwqoAb4mkye8qvjgUZnp97UFifb2yT+JV71sO8P
t8BtRHoNttm68SV4vwWGUz2Qy/cV235kSOoPpHq+UPc53xLwZnIjcwayObdCo7DF
hlsnMnNa/caiN0TPKrAkAeXrh03iQEhpoTI+jO5AbC1pJ91nVJtP896deywPQDmK
TmtaH0S07hucFqf/pvDZ9pROPemfoDHhhYgUR/1e0iaJT2FpBfdzj+vbpHEtiYqS
viLtTz2W7lJz
-----END CERTIFICATE-----
