Certificate:
    Data:
        Version: 3 (0x2)
        Serial Number: 25 (0x19)
        Signature Algorithm: sha256WithRSAEncryption
        Issuer: C=US, ST=California, L=Los Angeles, O=DigiCert Inc, OU=www.digicert.com, CN=DigiCert Global Root CA/emailAddress=www.digicert.com
        Validity
            Not Before: Mar 21 08:59:16 2024 GMT
            Not After : Mar 19 08:59:16 2034 GMT
        Subject: C=US, ST=California, L=Los Angeles, O=DigiCert Inc, OU=www.digicert.com, CN=h-adashx.ut.ele.me/emailAddress=www.digicert.com
        Subject Public Key Info:
            Public Key Algorithm: rsaEncryption
                RSA Public-Key: (1024 bit)
                Modulus:
                    00:ba:ad:4c:09:1a:3c:85:4f:60:d5:93:bc:9e:12:
                    f4:9b:16:e7:8b:d2:28:29:ab:f9:38:99:e1:84:3a:
                    1b:70:6e:a0:5b:ad:f3:4e:65:5c:19:fb:56:89:16:
                    fb:68:36:43:1a:3b:b6:32:4d:63:43:b0:c5:10:69:
                    3d:96:13:7f:aa:e4:74:d4:b3:60:aa:af:5b:c7:56:
                    f6:e1:49:55:d9:92:ba:70:37:73:4c:91:6b:cc:10:
                    8e:58:f2:e2:1b:1b:1e:72:3e:c6:bb:a5:ca:08:d8:
                    bb:23:bb:bf:86:02:de:11:e9:d9:79:6d:60:a6:c6:
                    0c:2c:e3:35:72:f1:76:bf:b5
                Exponent: 65537 (0x10001)
        X509v3 extensions:
            X509v3 Subject Alternative Name: 
                DNS:h-adashx.ut.ele.me
    Signature Algorithm: sha256WithRSAEncryption
         ae:d5:76:4d:02:b6:2e:0c:c0:bc:75:3c:9d:00:71:0c:54:f3:
         fd:33:bd:8e:de:51:3a:34:56:69:d7:8c:1d:51:95:02:b7:81:
         1e:1e:1f:42:52:d8:dc:e0:d8:7e:58:25:b5:33:a9:3f:72:63:
         b6:5d:fc:18:ac:05:68:fd:c0:63:d7:78:1c:ee:23:a8:5d:24:
         83:f4:d2:55:c6:a5:14:41:b7:a5:76:d5:16:8c:5a:ef:be:a4:
         72:d1:55:4b:a9:bb:33:55:75:e6:b0:8f:70:30:cb:d0:b7:46:
         65:6c:0e:a0:23:b1:bc:a2:10:ad:66:32:c3:ce:d1:92:d8:61:
         ae:7c:e1:29:81:01:5b:4a:21:45:73:49:4b:66:9b:15:d6:3c:
         a8:c2:7e:d5:b4:a4:7e:65:92:b7:96:cb:38:c3:a6:19:05:e4:
         b3:4b:f7:b2:eb:28:4b:88:69:b5:34:95:ab:99:eb:cd:c8:2f:
         3f:69:f7:b7:25:01:2b:12:a1:47:ac:3a:94:fc:24:69:d6:80:
         2a:d4:d6:11:9e:68:ce:7f:d2:b6:59:d5:bd:7b:6d:31:2a:84:
         7f:ba:5c:f4:18:82:90:e1:10:71:6f:a7:6f:bf:0f:d2:56:a6:
         c1:64:18:7d:53:3d:f7:67:a7:76:f8:49:fe:ea:22:50:8f:d7:
         1b:73:36:34
-----BEGIN CERTIFICATE-----
MIIDbzCCAlegAwIBAgIBGTANBgkqhkiG9w0BAQsFADCBrTELMAkGA1UEBhMCVVMx
EzARBgNVBAgMCkNhbGlmb3JuaWExFDASBgNVBAcMC0xvcyBBbmdlbGVzMRUwEwYD
VQQKDAxEaWdpQ2VydCBJbmMxGTAXBgNVBAsMEHd3dy5kaWdpY2VydC5jb20xIDAe
BgNVBAMMF0RpZ2lDZXJ0IEdsb2JhbCBSb290IENBMR8wHQYJKoZIhvcNAQkBFhB3
d3cuZGlnaWNlcnQuY29tMB4XDTI0MDMyMTA4NTkxNloXDTM0MDMxOTA4NTkxNlow
gagxCzAJBgNVBAYTAlVTMRMwEQYDVQQIDApDYWxpZm9ybmlhMRQwEgYDVQQHDAtM
b3MgQW5nZWxlczEVMBMGA1UECgwMRGlnaUNlcnQgSW5jMRkwFwYDVQQLDBB3d3cu
ZGlnaWNlcnQuY29tMRswGQYDVQQDDBJoLWFkYXNoeC51dC5lbGUubWUxHzAdBgkq
hkiG9w0BCQEWEHd3dy5kaWdpY2VydC5jb20wgZ8wDQYJKoZIhvcNAQEBBQADgY0A
MIGJAoGBALqtTAkaPIVPYNWTvJ4S9JsW54vSKCmr+TiZ4YQ6G3BuoFut805lXBn7
VokW+2g2Qxo7tjJNY0OwxRBpPZYTf6rkdNSzYKqvW8dW9uFJVdmSunA3c0yRa8wQ
jljy4hsbHnI+xrulygjYuyO7v4YC3hHp2XltYKbGDCzjNXLxdr+1AgMBAAGjITAf
MB0GA1UdEQQWMBSCEmgtYWRhc2h4LnV0LmVsZS5tZTANBgkqhkiG9w0BAQsFAAOC
AQEArtV2TQK2LgzAvHU8nQBxDFTz/TO9jt5ROjRWadeMHVGVAreBHh4fQlLY3ODY
flgltTOpP3Jjtl38GKwFaP3AY9d4HO4jqF0kg/TSVcalFEG3pXbVFoxa776kctFV
S6m7M1V15rCPcDDL0LdGZWwOoCOxvKIQrWYyw87RkthhrnzhKYEBW0ohRXNJS2ab
FdY8qMJ+1bSkfmWSt5bLOMOmGQXks0v3susoS4hptTSVq5nrzcgvP2n3tyUBKxKh
R6w6lPwkadaAKtTWEZ5ozn/StlnVvXttMSqEf7pc9BiCkOEQcW+nb78P0lamwWQY
fVM992endvhJ/uoiUI/XG3M2NA==
-----END CERTIFICATE-----
