Certificate:
    Data:
        Version: 3 (0x2)
        Serial Number: 7 (0x7)
        Signature Algorithm: sha256WithRSAEncryption
        Issuer: C=US, ST=California, L=Los Angeles, O=DigiCert Inc, OU=www.digicert.com, CN=DigiCert Global Root CA/emailAddress=www.digicert.com
        Validity
            Not Before: Mar 21 06:15:05 2024 GMT
            Not After : Mar 19 06:15:05 2034 GMT
        Subject: C=US, ST=California, L=Los Angeles, O=DigiCert Inc, OU=www.digicert.com, CN=h-adashx.ut.ele.me/emailAddress=www.digicert.com
        Subject Public Key Info:
            Public Key Algorithm: rsaEncryption
                RSA Public-Key: (1024 bit)
                Modulus:
                    00:ba:ad:4c:09:1a:3c:85:4f:60:d5:93:bc:9e:12:
                    f4:9b:16:e7:8b:d2:28:29:ab:f9:38:99:e1:84:3a:
                    1b:70:6e:a0:5b:ad:f3:4e:65:5c:19:fb:56:89:16:
                    fb:68:36:43:1a:3b:b6:32:4d:63:43:b0:c5:10:69:
                    3d:96:13:7f:aa:e4:74:d4:b3:60:aa:af:5b:c7:56:
                    f6:e1:49:55:d9:92:ba:70:37:73:4c:91:6b:cc:10:
                    8e:58:f2:e2:1b:1b:1e:72:3e:c6:bb:a5:ca:08:d8:
                    bb:23:bb:bf:86:02:de:11:e9:d9:79:6d:60:a6:c6:
                    0c:2c:e3:35:72:f1:76:bf:b5
                Exponent: 65537 (0x10001)
        X509v3 extensions:
            X509v3 Subject Alternative Name: 
                DNS:h-adashx.ut.ele.me
    Signature Algorithm: sha256WithRSAEncryption
         a7:a3:62:b9:c9:7e:98:b9:43:79:93:00:ac:40:5f:b3:b9:08:
         c4:ed:c6:1a:b9:f9:b6:50:a9:4f:e4:3f:c7:51:d6:45:28:88:
         a8:96:f6:f4:3c:13:17:35:d2:4d:53:a4:b6:f2:26:97:75:d2:
         1d:19:03:2d:c7:f1:ce:7a:c1:82:4c:d6:af:bc:e1:05:7c:89:
         58:af:81:73:36:8a:75:69:e0:29:73:c3:d5:06:78:52:82:96:
         4c:31:e7:9e:70:08:ee:46:bf:05:05:b7:42:d7:26:62:26:c2:
         f4:43:1e:29:3a:d7:29:a4:40:18:68:d6:ee:d6:a9:91:0e:16:
         37:77:77:9b:e6:eb:89:35:56:2c:4b:15:e5:3d:c7:68:f4:92:
         6c:e4:5f:36:2d:01:24:a3:e3:30:30:dd:4d:5d:a1:a9:c5:9a:
         51:a7:e7:78:81:9c:4f:9a:28:57:59:bb:50:80:e1:56:de:44:
         c1:f1:ab:f7:43:78:d4:f3:2f:ec:86:ba:35:a2:af:9c:62:b8:
         d9:4e:35:7c:8d:60:90:0d:e0:43:0b:5c:1d:8c:8a:5c:70:e6:
         fb:06:fc:eb:f3:71:b2:d4:0c:ee:a8:28:ca:19:e2:a0:49:90:
         95:a2:f5:84:db:13:d6:e2:ba:b7:e4:bd:65:d5:a1:52:ca:f5:
         8e:08:ef:4f
-----BEGIN CERTIFICATE-----
MIIDbzCCAlegAwIBAgIBBzANBgkqhkiG9w0BAQsFADCBrTELMAkGA1UEBhMCVVMx
EzARBgNVBAgMCkNhbGlmb3JuaWExFDASBgNVBAcMC0xvcyBBbmdlbGVzMRUwEwYD
VQQKDAxEaWdpQ2VydCBJbmMxGTAXBgNVBAsMEHd3dy5kaWdpY2VydC5jb20xIDAe
BgNVBAMMF0RpZ2lDZXJ0IEdsb2JhbCBSb290IENBMR8wHQYJKoZIhvcNAQkBFhB3
d3cuZGlnaWNlcnQuY29tMB4XDTI0MDMyMTA2MTUwNVoXDTM0MDMxOTA2MTUwNVow
gagxCzAJBgNVBAYTAlVTMRMwEQYDVQQIDApDYWxpZm9ybmlhMRQwEgYDVQQHDAtM
b3MgQW5nZWxlczEVMBMGA1UECgwMRGlnaUNlcnQgSW5jMRkwFwYDVQQLDBB3d3cu
ZGlnaWNlcnQuY29tMRswGQYDVQQDDBJoLWFkYXNoeC51dC5lbGUubWUxHzAdBgkq
hkiG9w0BCQEWEHd3dy5kaWdpY2VydC5jb20wgZ8wDQYJKoZIhvcNAQEBBQADgY0A
MIGJAoGBALqtTAkaPIVPYNWTvJ4S9JsW54vSKCmr+TiZ4YQ6G3BuoFut805lXBn7
VokW+2g2Qxo7tjJNY0OwxRBpPZYTf6rkdNSzYKqvW8dW9uFJVdmSunA3c0yRa8wQ
jljy4hsbHnI+xrulygjYuyO7v4YC3hHp2XltYKbGDCzjNXLxdr+1AgMBAAGjITAf
MB0GA1UdEQQWMBSCEmgtYWRhc2h4LnV0LmVsZS5tZTANBgkqhkiG9w0BAQsFAAOC
AQEAp6Niucl+mLlDeZMArEBfs7kIxO3GGrn5tlCpT+Q/x1HWRSiIqJb29DwTFzXS
TVOktvIml3XSHRkDLcfxznrBgkzWr7zhBXyJWK+BczaKdWngKXPD1QZ4UoKWTDHn
nnAI7ka/BQW3QtcmYibC9EMeKTrXKaRAGGjW7tapkQ4WN3d3m+briTVWLEsV5T3H
aPSSbORfNi0BJKPjMDDdTV2hqcWaUafneIGcT5ooV1m7UIDhVt5EwfGr90N41PMv
7Ia6NaKvnGK42U41fI1gkA3gQwtcHYyKXHDm+wb86/NxstQM7qgoyhnioEmQlaL1
hNsT1uK6t+S9ZdWhUsr1jgjvTw==
-----END CERTIFICATE-----
