Certificate:
    Data:
        Version: 3 (0x2)
        Serial Number: 7 (0x7)
        Signature Algorithm: sha256WithRSAEncryption
        Issuer: C=US, ST=California, L=Los Angeles, O=DigiCert Inc, OU=www.digicert.com, CN=DigiCert Global Root CA/emailAddress=www.digicert.com
        Validity
            Not Before: Mar 21 08:56:52 2024 GMT
            Not After : Mar 19 08:56:52 2034 GMT
        Subject: C=US, ST=California, L=Los Angeles, O=DigiCert Inc, OU=www.digicert.com, CN=h5-data.elemecdn.com/emailAddress=www.digicert.com
        Subject Public Key Info:
            Public Key Algorithm: rsaEncryption
                RSA Public-Key: (1024 bit)
                Modulus:
                    00:ba:ad:4c:09:1a:3c:85:4f:60:d5:93:bc:9e:12:
                    f4:9b:16:e7:8b:d2:28:29:ab:f9:38:99:e1:84:3a:
                    1b:70:6e:a0:5b:ad:f3:4e:65:5c:19:fb:56:89:16:
                    fb:68:36:43:1a:3b:b6:32:4d:63:43:b0:c5:10:69:
                    3d:96:13:7f:aa:e4:74:d4:b3:60:aa:af:5b:c7:56:
                    f6:e1:49:55:d9:92:ba:70:37:73:4c:91:6b:cc:10:
                    8e:58:f2:e2:1b:1b:1e:72:3e:c6:bb:a5:ca:08:d8:
                    bb:23:bb:bf:86:02:de:11:e9:d9:79:6d:60:a6:c6:
                    0c:2c:e3:35:72:f1:76:bf:b5
                Exponent: 65537 (0x10001)
        X509v3 extensions:
            X509v3 Subject Alternative Name: 
                DNS:h5-data.elemecdn.com
    Signature Algorithm: sha256WithRSAEncryption
         41:ce:f4:ee:f6:7a:a8:61:d5:8a:23:1d:d4:aa:1b:0c:2c:52:
         76:8c:27:bd:89:ed:00:b6:f2:d0:a8:7f:e9:c9:27:92:45:00:
         e1:77:84:54:65:10:74:32:a9:7e:96:ea:40:1f:4e:00:97:62:
         a0:dc:ee:e2:40:1e:f3:25:90:f1:18:74:80:f6:4b:1c:6f:08:
         c2:6a:19:c8:9a:52:dd:41:a8:23:48:b7:1c:fd:17:de:36:b2:
         60:9c:27:06:26:9f:9d:13:cf:42:6d:12:1d:1d:6c:8c:33:18:
         6f:95:3e:49:3c:25:d9:29:fe:ee:f7:7d:bd:65:fe:8e:37:a9:
         4a:f9:03:8f:64:78:58:bb:35:cb:a2:3c:da:21:6c:fb:a7:55:
         de:f8:e8:92:f8:e8:74:ef:19:e0:1b:34:b0:65:a0:3e:f9:18:
         7c:27:5c:90:78:45:0d:98:4b:41:65:c9:db:b3:4a:27:ab:c6:
         99:8b:6a:8c:79:56:e5:eb:6e:45:ba:d2:9c:c6:96:c0:ca:d2:
         91:16:3d:6f:5a:89:0e:ec:b1:7f:6d:29:ed:40:5c:41:e7:58:
         97:14:ea:6f:d1:25:ff:40:70:21:d0:69:93:d4:0d:7b:3f:b9:
         16:c3:85:7f:bc:9e:62:e6:6e:92:60:bd:7b:cf:da:a9:7a:ae:
         98:47:a7:3f
-----BEGIN CERTIFICATE-----
MIIDczCCAlugAwIBAgIBBzANBgkqhkiG9w0BAQsFADCBrTELMAkGA1UEBhMCVVMx
EzARBgNVBAgMCkNhbGlmb3JuaWExFDASBgNVBAcMC0xvcyBBbmdlbGVzMRUwEwYD
VQQKDAxEaWdpQ2VydCBJbmMxGTAXBgNVBAsMEHd3dy5kaWdpY2VydC5jb20xIDAe
BgNVBAMMF0RpZ2lDZXJ0IEdsb2JhbCBSb290IENBMR8wHQYJKoZIhvcNAQkBFhB3
d3cuZGlnaWNlcnQuY29tMB4XDTI0MDMyMTA4NTY1MloXDTM0MDMxOTA4NTY1Mlow
gaoxCzAJBgNVBAYTAlVTMRMwEQYDVQQIDApDYWxpZm9ybmlhMRQwEgYDVQQHDAtM
b3MgQW5nZWxlczEVMBMGA1UECgwMRGlnaUNlcnQgSW5jMRkwFwYDVQQLDBB3d3cu
ZGlnaWNlcnQuY29tMR0wGwYDVQQDDBRoNS1kYXRhLmVsZW1lY2RuLmNvbTEfMB0G
CSqGSIb3DQEJARYQd3d3LmRpZ2ljZXJ0LmNvbTCBnzANBgkqhkiG9w0BAQEFAAOB
jQAwgYkCgYEAuq1MCRo8hU9g1ZO8nhL0mxbni9IoKav5OJnhhDobcG6gW63zTmVc
GftWiRb7aDZDGju2Mk1jQ7DFEGk9lhN/quR01LNgqq9bx1b24UlV2ZK6cDdzTJFr
zBCOWPLiGxsecj7Gu6XKCNi7I7u/hgLeEenZeW1gpsYMLOM1cvF2v7UCAwEAAaMj
MCEwHwYDVR0RBBgwFoIUaDUtZGF0YS5lbGVtZWNkbi5jb20wDQYJKoZIhvcNAQEL
BQADggEBAEHO9O72eqhh1YojHdSqGwwsUnaMJ72J7QC28tCof+nJJ5JFAOF3hFRl
EHQyqX6W6kAfTgCXYqDc7uJAHvMlkPEYdID2SxxvCMJqGciaUt1BqCNItxz9F942
smCcJwYmn50Tz0JtEh0dbIwzGG+VPkk8Jdkp/u73fb1l/o43qUr5A49keFi7Ncui
PNohbPunVd746JL46HTvGeAbNLBloD75GHwnXJB4RQ2YS0FlyduzSierxpmLaox5
VuXrbkW60pzGlsDK0pEWPW9aiQ7ssX9tKe1AXEHnWJcU6m/RJf9AcCHQaZPUDXs/
uRbDhX+8nmLmbpJgvXvP2ql6rphHpz8=
-----END CERTIFICATE-----
