Certificate:
    Data:
        Version: 3 (0x2)
        Serial Number: 23 (0x17)
        Signature Algorithm: sha256WithRSAEncryption
        Issuer: C=US, ST=California, L=Los Angeles, O=DigiCert Inc, OU=www.digicert.com, CN=DigiCert Global Root CA/emailAddress=www.digicert.com
        Validity
            Not Before: Mar 26 09:57:54 2024 GMT
            Not After : Mar 24 09:57:54 2034 GMT
        Subject: C=US, ST=California, L=Los Angeles, O=DigiCert Inc, OU=www.digicert.com, CN=h5.dianping.com/emailAddress=www.digicert.com
        Subject Public Key Info:
            Public Key Algorithm: rsaEncryption
                RSA Public-Key: (1024 bit)
                Modulus:
                    00:ba:ad:4c:09:1a:3c:85:4f:60:d5:93:bc:9e:12:
                    f4:9b:16:e7:8b:d2:28:29:ab:f9:38:99:e1:84:3a:
                    1b:70:6e:a0:5b:ad:f3:4e:65:5c:19:fb:56:89:16:
                    fb:68:36:43:1a:3b:b6:32:4d:63:43:b0:c5:10:69:
                    3d:96:13:7f:aa:e4:74:d4:b3:60:aa:af:5b:c7:56:
                    f6:e1:49:55:d9:92:ba:70:37:73:4c:91:6b:cc:10:
                    8e:58:f2:e2:1b:1b:1e:72:3e:c6:bb:a5:ca:08:d8:
                    bb:23:bb:bf:86:02:de:11:e9:d9:79:6d:60:a6:c6:
                    0c:2c:e3:35:72:f1:76:bf:b5
                Exponent: 65537 (0x10001)
        X509v3 extensions:
            X509v3 Subject Alternative Name: 
                DNS:h5.dianping.com
    Signature Algorithm: sha256WithRSAEncryption
         83:74:b7:93:65:18:43:c2:4b:66:d8:13:b6:2e:56:03:63:a8:
         e8:a0:53:ea:6d:92:b3:91:7c:54:b7:6d:7f:68:58:57:ec:de:
         df:38:6f:2c:11:1e:c3:89:47:42:8e:1c:74:53:58:3a:61:e4:
         54:6c:84:9f:4b:ac:58:86:87:44:3e:ab:9f:72:c8:49:16:88:
         f0:1a:4a:ec:79:17:23:87:72:12:ea:56:75:d9:f1:1b:dc:95:
         47:92:5a:83:ad:15:98:84:5d:80:2f:88:d8:99:40:e9:ca:48:
         87:e7:71:0c:22:6e:39:97:b2:f9:11:37:2a:4d:6f:d6:a5:97:
         96:d2:3b:4d:87:af:46:07:f9:2a:e6:86:b2:b8:61:50:cb:6b:
         81:fd:ba:62:78:8c:79:93:6b:15:47:b8:c9:3e:bd:5d:ec:5c:
         e7:a0:1d:06:84:cb:ea:2c:d6:30:56:17:90:88:37:af:02:b5:
         fc:d5:96:c5:85:d1:d0:39:97:84:4e:10:da:61:8f:7e:a1:a1:
         6c:9d:01:08:21:2a:35:a8:9f:63:7c:de:ee:5b:ad:4a:f2:70:
         0f:80:3d:c5:3d:11:3d:96:01:4d:c9:62:fe:e4:17:83:e2:fc:
         6b:c3:ce:92:66:29:18:87:e0:49:60:b3:45:99:43:ca:83:92:
         5b:3b:31:e6
-----BEGIN CERTIFICATE-----
MIIDaTCCAlGgAwIBAgIBFzANBgkqhkiG9w0BAQsFADCBrTELMAkGA1UEBhMCVVMx
EzARBgNVBAgMCkNhbGlmb3JuaWExFDASBgNVBAcMC0xvcyBBbmdlbGVzMRUwEwYD
VQQKDAxEaWdpQ2VydCBJbmMxGTAXBgNVBAsMEHd3dy5kaWdpY2VydC5jb20xIDAe
BgNVBAMMF0RpZ2lDZXJ0IEdsb2JhbCBSb290IENBMR8wHQYJKoZIhvcNAQkBFhB3
d3cuZGlnaWNlcnQuY29tMB4XDTI0MDMyNjA5NTc1NFoXDTM0MDMyNDA5NTc1NFow
gaUxCzAJBgNVBAYTAlVTMRMwEQYDVQQIDApDYWxpZm9ybmlhMRQwEgYDVQQHDAtM
b3MgQW5nZWxlczEVMBMGA1UECgwMRGlnaUNlcnQgSW5jMRkwFwYDVQQLDBB3d3cu
ZGlnaWNlcnQuY29tMRgwFgYDVQQDDA9oNS5kaWFucGluZy5jb20xHzAdBgkqhkiG
9w0BCQEWEHd3dy5kaWdpY2VydC5jb20wgZ8wDQYJKoZIhvcNAQEBBQADgY0AMIGJ
AoGBALqtTAkaPIVPYNWTvJ4S9JsW54vSKCmr+TiZ4YQ6G3BuoFut805lXBn7VokW
+2g2Qxo7tjJNY0OwxRBpPZYTf6rkdNSzYKqvW8dW9uFJVdmSunA3c0yRa8wQjljy
4hsbHnI+xrulygjYuyO7v4YC3hHp2XltYKbGDCzjNXLxdr+1AgMBAAGjHjAcMBoG
A1UdEQQTMBGCD2g1LmRpYW5waW5nLmNvbTANBgkqhkiG9w0BAQsFAAOCAQEAg3S3
k2UYQ8JLZtgTti5WA2Oo6KBT6m2Ss5F8VLdtf2hYV+ze3zhvLBEew4lHQo4cdFNY
OmHkVGyEn0usWIaHRD6rn3LISRaI8BpK7HkXI4dyEupWddnxG9yVR5Jag60VmIRd
gC+I2JlA6cpIh+dxDCJuOZey+RE3Kk1v1qWXltI7TYevRgf5KuaGsrhhUMtrgf26
YniMeZNrFUe4yT69Xexc56AdBoTL6izWMFYXkIg3rwK1/NWWxYXR0DmXhE4Q2mGP
fqGhbJ0BCCEqNaifY3ze7lutSvJwD4A9xT0RPZYBTcli/uQXg+L8a8POkmYpGIfg
SWCzRZlDyoOSWzsx5g==
-----END CERTIFICATE-----
