Certificate:
    Data:
        Version: 3 (0x2)
        Serial Number: 41 (0x29)
        Signature Algorithm: sha256WithRSAEncryption
        Issuer: C=US, ST=California, L=Los Angeles, O=DigiCert Inc, OU=www.digicert.com, CN=DigiCert Global Root CA/emailAddress=www.digicert.com
        Validity
            Not Before: Mar 21 09:07:54 2024 GMT
            Not After : Mar 19 09:07:54 2034 GMT
        Subject: C=US, ST=California, L=Los Angeles, O=DigiCert Inc, OU=www.digicert.com, CN=himg.bdimg.com/emailAddress=www.digicert.com
        Subject Public Key Info:
            Public Key Algorithm: rsaEncryption
                RSA Public-Key: (1024 bit)
                Modulus:
                    00:ba:ad:4c:09:1a:3c:85:4f:60:d5:93:bc:9e:12:
                    f4:9b:16:e7:8b:d2:28:29:ab:f9:38:99:e1:84:3a:
                    1b:70:6e:a0:5b:ad:f3:4e:65:5c:19:fb:56:89:16:
                    fb:68:36:43:1a:3b:b6:32:4d:63:43:b0:c5:10:69:
                    3d:96:13:7f:aa:e4:74:d4:b3:60:aa:af:5b:c7:56:
                    f6:e1:49:55:d9:92:ba:70:37:73:4c:91:6b:cc:10:
                    8e:58:f2:e2:1b:1b:1e:72:3e:c6:bb:a5:ca:08:d8:
                    bb:23:bb:bf:86:02:de:11:e9:d9:79:6d:60:a6:c6:
                    0c:2c:e3:35:72:f1:76:bf:b5
                Exponent: 65537 (0x10001)
        X509v3 extensions:
            X509v3 Subject Alternative Name: 
                DNS:himg.bdimg.com
    Signature Algorithm: sha256WithRSAEncryption
         81:f7:2d:2e:0b:9f:4c:62:8c:07:e9:1c:d4:ab:e4:16:7a:2c:
         b6:e3:4b:c9:ca:af:d9:02:38:17:91:aa:f8:0b:1f:7c:f4:84:
         6c:f3:2f:20:bc:d8:45:b0:21:54:95:30:81:2d:f6:58:a6:f8:
         76:b2:89:a1:82:8e:23:b6:43:60:c4:4b:f0:cc:ab:a4:da:ff:
         86:9e:e0:9d:57:4e:8d:ef:bd:20:0d:15:9c:d2:e1:86:23:59:
         8a:f8:a3:38:1b:14:d6:dd:3d:81:a5:50:57:90:90:99:62:d2:
         e4:d8:83:ae:73:ab:07:a3:87:da:9b:53:0b:7d:4d:87:0d:f8:
         17:9f:c9:0e:05:07:7f:ba:0d:2a:36:e8:93:43:7d:22:bb:31:
         e6:37:6f:15:1b:20:86:e4:ea:42:42:6c:1a:6a:c0:43:95:42:
         75:77:a0:bc:a5:2e:64:5f:72:16:ff:e0:6e:10:95:cc:80:b0:
         ea:c2:7f:b8:dd:36:2b:b1:5a:9f:f2:4a:f3:11:10:1f:7d:52:
         4c:e5:11:eb:fc:e5:32:94:44:c3:6d:14:11:c1:fa:3d:ef:09:
         95:7a:8c:96:00:a5:7f:66:6f:65:b6:df:f3:d6:d4:96:0f:de:
         c1:0c:54:ed:11:2d:af:ae:8e:51:ce:ce:b6:cd:e5:2e:c7:b6:
         bc:cb:94:4c
-----BEGIN CERTIFICATE-----
MIIDZzCCAk+gAwIBAgIBKTANBgkqhkiG9w0BAQsFADCBrTELMAkGA1UEBhMCVVMx
EzARBgNVBAgMCkNhbGlmb3JuaWExFDASBgNVBAcMC0xvcyBBbmdlbGVzMRUwEwYD
VQQKDAxEaWdpQ2VydCBJbmMxGTAXBgNVBAsMEHd3dy5kaWdpY2VydC5jb20xIDAe
BgNVBAMMF0RpZ2lDZXJ0IEdsb2JhbCBSb290IENBMR8wHQYJKoZIhvcNAQkBFhB3
d3cuZGlnaWNlcnQuY29tMB4XDTI0MDMyMTA5MDc1NFoXDTM0MDMxOTA5MDc1NFow
gaQxCzAJBgNVBAYTAlVTMRMwEQYDVQQIDApDYWxpZm9ybmlhMRQwEgYDVQQHDAtM
b3MgQW5nZWxlczEVMBMGA1UECgwMRGlnaUNlcnQgSW5jMRkwFwYDVQQLDBB3d3cu
ZGlnaWNlcnQuY29tMRcwFQYDVQQDDA5oaW1nLmJkaW1nLmNvbTEfMB0GCSqGSIb3
DQEJARYQd3d3LmRpZ2ljZXJ0LmNvbTCBnzANBgkqhkiG9w0BAQEFAAOBjQAwgYkC
gYEAuq1MCRo8hU9g1ZO8nhL0mxbni9IoKav5OJnhhDobcG6gW63zTmVcGftWiRb7
aDZDGju2Mk1jQ7DFEGk9lhN/quR01LNgqq9bx1b24UlV2ZK6cDdzTJFrzBCOWPLi
Gxsecj7Gu6XKCNi7I7u/hgLeEenZeW1gpsYMLOM1cvF2v7UCAwEAAaMdMBswGQYD
VR0RBBIwEIIOaGltZy5iZGltZy5jb20wDQYJKoZIhvcNAQELBQADggEBAIH3LS4L
n0xijAfpHNSr5BZ6LLbjS8nKr9kCOBeRqvgLH3z0hGzzLyC82EWwIVSVMIEt9lim
+HayiaGCjiO2Q2DES/DMq6Ta/4ae4J1XTo3vvSANFZzS4YYjWYr4ozgbFNbdPYGl
UFeQkJli0uTYg65zqwejh9qbUwt9TYcN+BefyQ4FB3+6DSo26JNDfSK7MeY3bxUb
IIbk6kJCbBpqwEOVQnV3oLylLmRfchb/4G4QlcyAsOrCf7jdNiuxWp/ySvMREB99
UkzlEev85TKURMNtFBHB+j3vCZV6jJYApX9mb2W23/PW1JYP3sEMVO0RLa+ujlHO
zrbN5S7HtrzLlEw=
-----END CERTIFICATE-----
