Certificate:
    Data:
        Version: 3 (0x2)
        Serial Number: 19 (0x13)
        Signature Algorithm: sha256WithRSAEncryption
        Issuer: C=US, ST=California, L=Los Angeles, O=DigiCert Inc, OU=www.digicert.com, CN=DigiCert Global Root CA/emailAddress=www.digicert.com
        Validity
            Not Before: Mar 21 08:57:31 2024 GMT
            Not After : Mar 19 08:57:31 2034 GMT
        Subject: C=US, ST=California, L=Los Angeles, O=DigiCert Inc, OU=www.digicert.com, CN=hm.baidu.com/emailAddress=www.digicert.com
        Subject Public Key Info:
            Public Key Algorithm: rsaEncryption
                RSA Public-Key: (1024 bit)
                Modulus:
                    00:ba:ad:4c:09:1a:3c:85:4f:60:d5:93:bc:9e:12:
                    f4:9b:16:e7:8b:d2:28:29:ab:f9:38:99:e1:84:3a:
                    1b:70:6e:a0:5b:ad:f3:4e:65:5c:19:fb:56:89:16:
                    fb:68:36:43:1a:3b:b6:32:4d:63:43:b0:c5:10:69:
                    3d:96:13:7f:aa:e4:74:d4:b3:60:aa:af:5b:c7:56:
                    f6:e1:49:55:d9:92:ba:70:37:73:4c:91:6b:cc:10:
                    8e:58:f2:e2:1b:1b:1e:72:3e:c6:bb:a5:ca:08:d8:
                    bb:23:bb:bf:86:02:de:11:e9:d9:79:6d:60:a6:c6:
                    0c:2c:e3:35:72:f1:76:bf:b5
                Exponent: 65537 (0x10001)
        X509v3 extensions:
            X509v3 Subject Alternative Name: 
                DNS:hm.baidu.com
    Signature Algorithm: sha256WithRSAEncryption
         08:fa:b6:44:23:31:4c:11:76:f9:76:82:21:3b:d1:22:98:94:
         35:71:60:4c:57:c1:23:66:13:3f:a2:ba:77:01:e2:7e:40:60:
         1a:90:c8:75:eb:6a:a9:b4:c7:7f:97:67:d3:88:e5:48:35:2b:
         f1:ca:e7:47:8b:c2:6b:b3:80:84:f9:db:75:40:e9:6e:d9:a4:
         f8:09:10:64:c9:16:dd:05:60:a3:93:a4:14:65:6b:6c:78:6a:
         b1:53:e7:12:52:5e:80:4c:9e:27:be:49:a3:1e:f1:72:21:97:
         9f:95:ba:cf:1b:ee:69:e1:68:db:18:de:63:5f:c8:99:a2:6c:
         6b:82:28:e4:57:bb:77:6f:b3:f0:06:90:27:eb:a3:2c:fd:60:
         f3:1e:d6:ed:28:6f:eb:50:67:57:77:72:d9:08:e5:64:f6:f6:
         7d:a9:ad:8f:ab:c6:bc:25:80:45:a3:0d:c1:bd:4f:75:b4:05:
         c7:60:ad:4d:05:6e:8a:73:fe:d2:4b:1b:5f:ed:f1:aa:06:80:
         67:77:34:31:7a:bd:2c:b6:ab:c0:5b:4b:e2:2c:9a:2a:8d:e5:
         6b:4f:79:0d:fa:ed:da:3c:a7:b7:9e:10:72:ea:a7:a5:9a:e6:
         a5:7c:cd:a5:6b:57:b8:7e:3d:7e:c4:a8:45:1f:e7:ea:71:1f:
         65:cc:80:22
-----BEGIN CERTIFICATE-----
MIIDYzCCAkugAwIBAgIBEzANBgkqhkiG9w0BAQsFADCBrTELMAkGA1UEBhMCVVMx
EzARBgNVBAgMCkNhbGlmb3JuaWExFDASBgNVBAcMC0xvcyBBbmdlbGVzMRUwEwYD
VQQKDAxEaWdpQ2VydCBJbmMxGTAXBgNVBAsMEHd3dy5kaWdpY2VydC5jb20xIDAe
BgNVBAMMF0RpZ2lDZXJ0IEdsb2JhbCBSb290IENBMR8wHQYJKoZIhvcNAQkBFhB3
d3cuZGlnaWNlcnQuY29tMB4XDTI0MDMyMTA4NTczMVoXDTM0MDMxOTA4NTczMVow
gaIxCzAJBgNVBAYTAlVTMRMwEQYDVQQIDApDYWxpZm9ybmlhMRQwEgYDVQQHDAtM
b3MgQW5nZWxlczEVMBMGA1UECgwMRGlnaUNlcnQgSW5jMRkwFwYDVQQLDBB3d3cu
ZGlnaWNlcnQuY29tMRUwEwYDVQQDDAxobS5iYWlkdS5jb20xHzAdBgkqhkiG9w0B
CQEWEHd3dy5kaWdpY2VydC5jb20wgZ8wDQYJKoZIhvcNAQEBBQADgY0AMIGJAoGB
ALqtTAkaPIVPYNWTvJ4S9JsW54vSKCmr+TiZ4YQ6G3BuoFut805lXBn7VokW+2g2
Qxo7tjJNY0OwxRBpPZYTf6rkdNSzYKqvW8dW9uFJVdmSunA3c0yRa8wQjljy4hsb
HnI+xrulygjYuyO7v4YC3hHp2XltYKbGDCzjNXLxdr+1AgMBAAGjGzAZMBcGA1Ud
EQQQMA6CDGhtLmJhaWR1LmNvbTANBgkqhkiG9w0BAQsFAAOCAQEACPq2RCMxTBF2
+XaCITvRIpiUNXFgTFfBI2YTP6K6dwHifkBgGpDIdetqqbTHf5dn04jlSDUr8crn
R4vCa7OAhPnbdUDpbtmk+AkQZMkW3QVgo5OkFGVrbHhqsVPnElJegEyeJ75Jox7x
ciGXn5W6zxvuaeFo2xjeY1/ImaJsa4Io5Fe7d2+z8AaQJ+ujLP1g8x7W7Shv61Bn
V3dy2QjlZPb2famtj6vGvCWARaMNwb1PdbQFx2CtTQVuinP+0ksbX+3xqgaAZ3c0
MXq9LLarwFtL4iyaKo3la095Dfrt2jynt54QcuqnpZrmpXzNpWtXuH49fsSoRR/n
6nEfZcyAIg==
-----END CERTIFICATE-----
