Certificate:
    Data:
        Version: 3 (0x2)
        Serial Number: 19 (0x13)
        Signature Algorithm: sha256WithRSAEncryption
        Issuer: C=US, ST=California, L=Los Angeles, O=DigiCert Inc, OU=www.digicert.com, CN=DigiCert Global Root CA/emailAddress=www.digicert.com
        Validity
            Not Before: Mar 21 06:20:48 2024 GMT
            Not After : Mar 19 06:20:48 2034 GMT
        Subject: C=US, ST=California, L=Los Angeles, O=DigiCert Inc, OU=www.digicert.com, CN=hm.baidu.com/emailAddress=www.digicert.com
        Subject Public Key Info:
            Public Key Algorithm: rsaEncryption
                RSA Public-Key: (1024 bit)
                Modulus:
                    00:ba:ad:4c:09:1a:3c:85:4f:60:d5:93:bc:9e:12:
                    f4:9b:16:e7:8b:d2:28:29:ab:f9:38:99:e1:84:3a:
                    1b:70:6e:a0:5b:ad:f3:4e:65:5c:19:fb:56:89:16:
                    fb:68:36:43:1a:3b:b6:32:4d:63:43:b0:c5:10:69:
                    3d:96:13:7f:aa:e4:74:d4:b3:60:aa:af:5b:c7:56:
                    f6:e1:49:55:d9:92:ba:70:37:73:4c:91:6b:cc:10:
                    8e:58:f2:e2:1b:1b:1e:72:3e:c6:bb:a5:ca:08:d8:
                    bb:23:bb:bf:86:02:de:11:e9:d9:79:6d:60:a6:c6:
                    0c:2c:e3:35:72:f1:76:bf:b5
                Exponent: 65537 (0x10001)
        X509v3 extensions:
            X509v3 Subject Alternative Name: 
                DNS:hm.baidu.com
    Signature Algorithm: sha256WithRSAEncryption
         3e:a7:34:c6:9c:59:9c:be:da:60:22:d9:32:eb:9d:a4:05:5d:
         03:08:91:e7:ad:58:4b:4e:69:7f:93:6c:a9:25:c6:2f:81:cb:
         70:e4:72:f9:cf:1c:6a:94:c0:56:97:49:e7:59:09:7d:3e:91:
         7c:7c:1e:7e:4d:4d:a7:06:a6:78:09:6e:15:60:41:33:da:bd:
         44:d6:58:a2:c4:01:c2:1f:aa:3d:3f:bd:f9:24:eb:7b:f0:79:
         98:1c:b7:0b:80:e3:c7:84:3b:79:af:18:9a:01:55:ea:8c:e7:
         f0:82:8c:cc:13:b5:ed:87:ea:a5:9f:bd:82:c3:25:c3:c0:04:
         9f:e7:e0:bb:7d:0f:d6:97:e6:af:70:00:b6:31:84:d3:e5:cb:
         80:8a:86:68:ed:01:aa:47:33:8d:9d:8f:f5:53:e5:a7:dc:35:
         d9:6a:3f:8a:fd:34:78:38:8e:d5:fa:e8:bf:f8:3e:be:79:28:
         f8:61:93:06:fa:0a:df:fd:82:69:8a:97:05:71:f4:4f:2b:ae:
         74:df:2e:00:c0:97:fb:12:04:b1:e2:91:d6:84:ab:b4:e4:ae:
         30:d3:1c:c4:14:88:57:6f:8d:d4:55:ee:dc:39:34:f0:a6:7c:
         d9:12:1c:0b:ed:ce:19:6c:7b:94:3d:aa:2e:ea:a1:46:03:98:
         55:76:94:f7
-----BEGIN CERTIFICATE-----
MIIDYzCCAkugAwIBAgIBEzANBgkqhkiG9w0BAQsFADCBrTELMAkGA1UEBhMCVVMx
EzARBgNVBAgMCkNhbGlmb3JuaWExFDASBgNVBAcMC0xvcyBBbmdlbGVzMRUwEwYD
VQQKDAxEaWdpQ2VydCBJbmMxGTAXBgNVBAsMEHd3dy5kaWdpY2VydC5jb20xIDAe
BgNVBAMMF0RpZ2lDZXJ0IEdsb2JhbCBSb290IENBMR8wHQYJKoZIhvcNAQkBFhB3
d3cuZGlnaWNlcnQuY29tMB4XDTI0MDMyMTA2MjA0OFoXDTM0MDMxOTA2MjA0OFow
gaIxCzAJBgNVBAYTAlVTMRMwEQYDVQQIDApDYWxpZm9ybmlhMRQwEgYDVQQHDAtM
b3MgQW5nZWxlczEVMBMGA1UECgwMRGlnaUNlcnQgSW5jMRkwFwYDVQQLDBB3d3cu
ZGlnaWNlcnQuY29tMRUwEwYDVQQDDAxobS5iYWlkdS5jb20xHzAdBgkqhkiG9w0B
CQEWEHd3dy5kaWdpY2VydC5jb20wgZ8wDQYJKoZIhvcNAQEBBQADgY0AMIGJAoGB
ALqtTAkaPIVPYNWTvJ4S9JsW54vSKCmr+TiZ4YQ6G3BuoFut805lXBn7VokW+2g2
Qxo7tjJNY0OwxRBpPZYTf6rkdNSzYKqvW8dW9uFJVdmSunA3c0yRa8wQjljy4hsb
HnI+xrulygjYuyO7v4YC3hHp2XltYKbGDCzjNXLxdr+1AgMBAAGjGzAZMBcGA1Ud
EQQQMA6CDGhtLmJhaWR1LmNvbTANBgkqhkiG9w0BAQsFAAOCAQEAPqc0xpxZnL7a
YCLZMuudpAVdAwiR561YS05pf5NsqSXGL4HLcORy+c8capTAVpdJ51kJfT6RfHwe
fk1NpwameAluFWBBM9q9RNZYosQBwh+qPT+9+STre/B5mBy3C4Djx4Q7ea8YmgFV
6ozn8IKMzBO17YfqpZ+9gsMlw8AEn+fgu30P1pfmr3AAtjGE0+XLgIqGaO0Bqkcz
jZ2P9VPlp9w12Wo/iv00eDiO1frov/g+vnko+GGTBvoK3/2CaYqXBXH0TyuudN8u
AMCX+xIEseKR1oSrtOSuMNMcxBSIV2+N1FXu3Dk08KZ82RIcC+3OGWx7lD2qLuqh
RgOYVXaU9w==
-----END CERTIFICATE-----
