Certificate:
    Data:
        Version: 3 (0x2)
        Serial Number: 40 (0x28)
        Signature Algorithm: sha256WithRSAEncryption
        Issuer: C=US, ST=California, L=Los Angeles, O=DigiCert Inc, OU=www.digicert.com, CN=DigiCert Global Root CA/emailAddress=www.digicert.com
        Validity
            Not Before: Mar 21 09:07:54 2024 GMT
            Not After : Mar 19 09:07:54 2034 GMT
        Subject: C=US, ST=California, L=Los Angeles, O=DigiCert Inc, OU=www.digicert.com, CN=iknow-pic.cdn.bcebos.com/emailAddress=www.digicert.com
        Subject Public Key Info:
            Public Key Algorithm: rsaEncryption
                RSA Public-Key: (1024 bit)
                Modulus:
                    00:ba:ad:4c:09:1a:3c:85:4f:60:d5:93:bc:9e:12:
                    f4:9b:16:e7:8b:d2:28:29:ab:f9:38:99:e1:84:3a:
                    1b:70:6e:a0:5b:ad:f3:4e:65:5c:19:fb:56:89:16:
                    fb:68:36:43:1a:3b:b6:32:4d:63:43:b0:c5:10:69:
                    3d:96:13:7f:aa:e4:74:d4:b3:60:aa:af:5b:c7:56:
                    f6:e1:49:55:d9:92:ba:70:37:73:4c:91:6b:cc:10:
                    8e:58:f2:e2:1b:1b:1e:72:3e:c6:bb:a5:ca:08:d8:
                    bb:23:bb:bf:86:02:de:11:e9:d9:79:6d:60:a6:c6:
                    0c:2c:e3:35:72:f1:76:bf:b5
                Exponent: 65537 (0x10001)
        X509v3 extensions:
            X509v3 Subject Alternative Name: 
                DNS:iknow-pic.cdn.bcebos.com
    Signature Algorithm: sha256WithRSAEncryption
         56:33:de:11:a7:de:63:10:a0:92:39:8c:33:8e:31:1f:4b:ef:
         40:1b:fa:8a:dc:cd:80:20:16:f9:84:f1:80:31:0c:23:97:65:
         76:c3:76:42:0b:ba:60:70:d7:9e:7a:11:97:e2:11:5d:c0:92:
         b9:83:74:24:b0:6a:ff:6f:ba:a1:37:c4:42:0b:e7:a7:9d:93:
         69:98:f5:0c:32:2d:41:f2:09:bf:1e:30:d7:6f:06:ea:c1:54:
         ea:a3:bd:7e:26:9a:1b:d3:52:1f:25:ea:c6:51:94:8d:69:2f:
         5c:d1:c4:7a:12:f7:08:0f:88:4b:59:95:37:30:02:4b:a5:14:
         c4:ac:76:ef:7d:60:f6:66:9d:d3:19:8c:e0:19:ca:71:96:e7:
         a1:29:a6:17:66:00:3d:1d:80:52:e8:87:1e:f3:74:3d:f0:e2:
         17:4e:4d:f2:af:3c:c1:49:2e:8e:1c:c5:20:9a:e2:c5:cb:8c:
         0d:3b:30:2f:02:dd:a7:0c:f0:00:3b:22:44:fd:93:c4:29:c3:
         32:73:7a:89:94:d1:fe:7f:47:c2:60:44:81:ef:51:fe:fe:ae:
         cd:17:83:49:9b:a3:b5:9e:ce:b5:51:24:94:1b:6e:da:c9:e5:
         52:c8:97:ee:df:a3:f0:6e:59:2f:0b:49:c6:2f:eb:d7:45:4a:
         35:84:6e:6c
-----BEGIN CERTIFICATE-----
MIIDezCCAmOgAwIBAgIBKDANBgkqhkiG9w0BAQsFADCBrTELMAkGA1UEBhMCVVMx
EzARBgNVBAgMCkNhbGlmb3JuaWExFDASBgNVBAcMC0xvcyBBbmdlbGVzMRUwEwYD
VQQKDAxEaWdpQ2VydCBJbmMxGTAXBgNVBAsMEHd3dy5kaWdpY2VydC5jb20xIDAe
BgNVBAMMF0RpZ2lDZXJ0IEdsb2JhbCBSb290IENBMR8wHQYJKoZIhvcNAQkBFhB3
d3cuZGlnaWNlcnQuY29tMB4XDTI0MDMyMTA5MDc1NFoXDTM0MDMxOTA5MDc1NFow
ga4xCzAJBgNVBAYTAlVTMRMwEQYDVQQIDApDYWxpZm9ybmlhMRQwEgYDVQQHDAtM
b3MgQW5nZWxlczEVMBMGA1UECgwMRGlnaUNlcnQgSW5jMRkwFwYDVQQLDBB3d3cu
ZGlnaWNlcnQuY29tMSEwHwYDVQQDDBhpa25vdy1waWMuY2RuLmJjZWJvcy5jb20x
HzAdBgkqhkiG9w0BCQEWEHd3dy5kaWdpY2VydC5jb20wgZ8wDQYJKoZIhvcNAQEB
BQADgY0AMIGJAoGBALqtTAkaPIVPYNWTvJ4S9JsW54vSKCmr+TiZ4YQ6G3BuoFut
805lXBn7VokW+2g2Qxo7tjJNY0OwxRBpPZYTf6rkdNSzYKqvW8dW9uFJVdmSunA3
c0yRa8wQjljy4hsbHnI+xrulygjYuyO7v4YC3hHp2XltYKbGDCzjNXLxdr+1AgMB
AAGjJzAlMCMGA1UdEQQcMBqCGGlrbm93LXBpYy5jZG4uYmNlYm9zLmNvbTANBgkq
hkiG9w0BAQsFAAOCAQEAVjPeEafeYxCgkjmMM44xH0vvQBv6itzNgCAW+YTxgDEM
I5dldsN2Qgu6YHDXnnoRl+IRXcCSuYN0JLBq/2+6oTfEQgvnp52TaZj1DDItQfIJ
vx4w128G6sFU6qO9fiaaG9NSHyXqxlGUjWkvXNHEehL3CA+IS1mVNzACS6UUxKx2
731g9mad0xmM4BnKcZbnoSmmF2YAPR2AUuiHHvN0PfDiF05N8q88wUkujhzFIJri
xcuMDTswLwLdpwzwADsiRP2TxCnDMnN6iZTR/n9HwmBEge9R/v6uzReDSZujtZ7O
tVEklBtu2snlUsiX7t+j8G5ZLwtJxi/r10VKNYRubA==
-----END CERTIFICATE-----
