Certificate:
    Data:
        Version: 3 (0x2)
        Serial Number: 38 (0x26)
        Signature Algorithm: sha256WithRSAEncryption
        Issuer: C=US, ST=California, L=Los Angeles, O=DigiCert Inc, OU=www.digicert.com, CN=DigiCert Global Root CA/emailAddress=www.digicert.com
        Validity
            Not Before: Mar 21 09:07:53 2024 GMT
            Not After : Mar 19 09:07:53 2034 GMT
        Subject: C=US, ST=California, L=Los Angeles, O=DigiCert Inc, OU=www.digicert.com, CN=iknow-base.cdn.bcebos.com/emailAddress=www.digicert.com
        Subject Public Key Info:
            Public Key Algorithm: rsaEncryption
                RSA Public-Key: (1024 bit)
                Modulus:
                    00:ba:ad:4c:09:1a:3c:85:4f:60:d5:93:bc:9e:12:
                    f4:9b:16:e7:8b:d2:28:29:ab:f9:38:99:e1:84:3a:
                    1b:70:6e:a0:5b:ad:f3:4e:65:5c:19:fb:56:89:16:
                    fb:68:36:43:1a:3b:b6:32:4d:63:43:b0:c5:10:69:
                    3d:96:13:7f:aa:e4:74:d4:b3:60:aa:af:5b:c7:56:
                    f6:e1:49:55:d9:92:ba:70:37:73:4c:91:6b:cc:10:
                    8e:58:f2:e2:1b:1b:1e:72:3e:c6:bb:a5:ca:08:d8:
                    bb:23:bb:bf:86:02:de:11:e9:d9:79:6d:60:a6:c6:
                    0c:2c:e3:35:72:f1:76:bf:b5
                Exponent: 65537 (0x10001)
        X509v3 extensions:
            X509v3 Subject Alternative Name: 
                DNS:iknow-base.cdn.bcebos.com
    Signature Algorithm: sha256WithRSAEncryption
         33:30:e1:b5:c5:a2:60:26:06:3c:46:04:a0:b7:8a:e5:39:43:
         5f:83:43:99:4a:25:7b:f7:a1:d7:78:68:4e:b2:81:89:5e:45:
         4f:48:d8:1f:53:0d:bc:84:0a:36:34:b8:0d:e1:56:14:f9:0f:
         16:c1:67:41:dd:7d:c6:e5:d6:57:46:c4:5e:6a:8e:65:b7:d9:
         04:69:29:33:a2:95:40:64:84:20:4c:42:00:bf:cd:34:a8:17:
         55:24:67:78:79:30:28:76:d3:b0:72:cb:aa:5a:b3:d2:73:bc:
         aa:36:b0:2e:3c:f4:ed:97:9a:75:cf:cf:aa:58:b2:38:28:9c:
         ee:fc:d6:03:69:23:58:94:c7:1f:6d:35:64:97:3b:1f:19:b0:
         f0:3e:29:b2:3b:25:35:96:34:15:e8:ea:0b:a1:56:1a:2a:8a:
         4d:99:f5:f7:f6:d9:85:a1:ea:20:0b:a4:84:1e:06:cb:f2:3d:
         38:dd:aa:36:b8:d9:82:08:27:48:63:37:f5:e0:b2:34:d4:86:
         66:bc:ef:2e:32:8f:be:4e:9e:ce:90:1d:cb:23:67:99:e6:10:
         b1:5f:da:87:02:8d:de:3f:8a:39:36:06:bc:b3:a0:86:60:c1:
         b6:ba:f3:ea:55:cb:26:af:44:93:9d:ee:d6:29:40:b6:86:af:
         2d:3d:f1:80
-----BEGIN CERTIFICATE-----
MIIDfTCCAmWgAwIBAgIBJjANBgkqhkiG9w0BAQsFADCBrTELMAkGA1UEBhMCVVMx
EzARBgNVBAgMCkNhbGlmb3JuaWExFDASBgNVBAcMC0xvcyBBbmdlbGVzMRUwEwYD
VQQKDAxEaWdpQ2VydCBJbmMxGTAXBgNVBAsMEHd3dy5kaWdpY2VydC5jb20xIDAe
BgNVBAMMF0RpZ2lDZXJ0IEdsb2JhbCBSb290IENBMR8wHQYJKoZIhvcNAQkBFhB3
d3cuZGlnaWNlcnQuY29tMB4XDTI0MDMyMTA5MDc1M1oXDTM0MDMxOTA5MDc1M1ow
ga8xCzAJBgNVBAYTAlVTMRMwEQYDVQQIDApDYWxpZm9ybmlhMRQwEgYDVQQHDAtM
b3MgQW5nZWxlczEVMBMGA1UECgwMRGlnaUNlcnQgSW5jMRkwFwYDVQQLDBB3d3cu
ZGlnaWNlcnQuY29tMSIwIAYDVQQDDBlpa25vdy1iYXNlLmNkbi5iY2Vib3MuY29t
MR8wHQYJKoZIhvcNAQkBFhB3d3cuZGlnaWNlcnQuY29tMIGfMA0GCSqGSIb3DQEB
AQUAA4GNADCBiQKBgQC6rUwJGjyFT2DVk7yeEvSbFueL0igpq/k4meGEOhtwbqBb
rfNOZVwZ+1aJFvtoNkMaO7YyTWNDsMUQaT2WE3+q5HTUs2Cqr1vHVvbhSVXZkrpw
N3NMkWvMEI5Y8uIbGx5yPsa7pcoI2Lsju7+GAt4R6dl5bWCmxgws4zVy8Xa/tQID
AQABoygwJjAkBgNVHREEHTAbghlpa25vdy1iYXNlLmNkbi5iY2Vib3MuY29tMA0G
CSqGSIb3DQEBCwUAA4IBAQAzMOG1xaJgJgY8RgSgt4rlOUNfg0OZSiV796HXeGhO
soGJXkVPSNgfUw28hAo2NLgN4VYU+Q8WwWdB3X3G5dZXRsReao5lt9kEaSkzopVA
ZIQgTEIAv800qBdVJGd4eTAodtOwcsuqWrPSc7yqNrAuPPTtl5p1z8+qWLI4KJzu
/NYDaSNYlMcfbTVklzsfGbDwPimyOyU1ljQV6OoLoVYaKopNmfX39tmFoeogC6SE
HgbL8j043ao2uNmCCCdIYzf14LI01IZmvO8uMo++Tp7OkB3LI2eZ5hCxX9qHAo3e
P4o5Nga8s6CGYMG2uvPqVcsmr0STne7WKUC2hq8tPfGA
-----END CERTIFICATE-----
