Certificate:
    Data:
        Version: 3 (0x2)
        Serial Number: 37 (0x25)
        Signature Algorithm: sha256WithRSAEncryption
        Issuer: C=US, ST=California, L=Los Angeles, O=DigiCert Inc, OU=www.digicert.com, CN=DigiCert Global Root CA/emailAddress=www.digicert.com
        Validity
            Not Before: Mar 21 09:07:53 2024 GMT
            Not After : Mar 19 09:07:53 2034 GMT
        Subject: C=US, ST=California, L=Los Angeles, O=DigiCert Inc, OU=www.digicert.com, CN=iknow-zhidao.bdimg.com/emailAddress=www.digicert.com
        Subject Public Key Info:
            Public Key Algorithm: rsaEncryption
                RSA Public-Key: (1024 bit)
                Modulus:
                    00:ba:ad:4c:09:1a:3c:85:4f:60:d5:93:bc:9e:12:
                    f4:9b:16:e7:8b:d2:28:29:ab:f9:38:99:e1:84:3a:
                    1b:70:6e:a0:5b:ad:f3:4e:65:5c:19:fb:56:89:16:
                    fb:68:36:43:1a:3b:b6:32:4d:63:43:b0:c5:10:69:
                    3d:96:13:7f:aa:e4:74:d4:b3:60:aa:af:5b:c7:56:
                    f6:e1:49:55:d9:92:ba:70:37:73:4c:91:6b:cc:10:
                    8e:58:f2:e2:1b:1b:1e:72:3e:c6:bb:a5:ca:08:d8:
                    bb:23:bb:bf:86:02:de:11:e9:d9:79:6d:60:a6:c6:
                    0c:2c:e3:35:72:f1:76:bf:b5
                Exponent: 65537 (0x10001)
        X509v3 extensions:
            X509v3 Subject Alternative Name: 
                DNS:iknow-zhidao.bdimg.com
    Signature Algorithm: sha256WithRSAEncryption
         7b:b2:ca:48:d9:f9:34:66:5c:cf:5f:8c:3b:10:cb:b8:c4:03:
         ee:d5:3f:ca:74:43:1b:5a:5f:55:6f:07:e4:ef:43:e5:76:b3:
         a5:a1:ff:6e:d5:9e:16:d7:7d:fc:83:1a:ce:92:93:b1:45:6e:
         63:f9:08:f3:42:a2:5d:e2:77:c3:15:82:8e:c2:ce:7a:27:bd:
         83:9f:ab:ca:c3:f2:88:af:24:72:b3:34:02:10:56:fa:30:a9:
         7a:47:20:aa:6d:4e:f7:7d:f4:65:f4:7b:8a:eb:a3:0e:75:81:
         ec:21:d3:01:b2:0c:cc:2f:5b:05:ba:94:59:29:22:98:fe:69:
         e1:b9:53:0d:7c:9a:ac:66:45:01:90:0e:10:16:19:a3:23:f2:
         aa:a0:ef:ac:11:a6:5a:12:f2:b8:06:04:ef:2b:84:0a:b6:57:
         a0:14:80:87:15:02:76:71:6b:3a:95:bb:20:74:3a:86:74:c7:
         a2:7c:d8:62:ed:93:ae:55:2c:0c:f4:2a:39:bf:2a:51:95:04:
         fc:40:73:cd:48:60:8a:ac:5e:31:cb:23:43:7e:79:3f:09:a4:
         c3:c0:8b:eb:9d:f8:d4:93:37:bc:06:12:d7:d2:13:bd:e8:dc:
         ab:62:0c:01:10:ba:b8:f4:30:2c:41:c6:b6:26:51:01:6b:6b:
         dd:6f:00:d3
-----BEGIN CERTIFICATE-----
MIIDdzCCAl+gAwIBAgIBJTANBgkqhkiG9w0BAQsFADCBrTELMAkGA1UEBhMCVVMx
EzARBgNVBAgMCkNhbGlmb3JuaWExFDASBgNVBAcMC0xvcyBBbmdlbGVzMRUwEwYD
VQQKDAxEaWdpQ2VydCBJbmMxGTAXBgNVBAsMEHd3dy5kaWdpY2VydC5jb20xIDAe
BgNVBAMMF0RpZ2lDZXJ0IEdsb2JhbCBSb290IENBMR8wHQYJKoZIhvcNAQkBFhB3
d3cuZGlnaWNlcnQuY29tMB4XDTI0MDMyMTA5MDc1M1oXDTM0MDMxOTA5MDc1M1ow
gawxCzAJBgNVBAYTAlVTMRMwEQYDVQQIDApDYWxpZm9ybmlhMRQwEgYDVQQHDAtM
b3MgQW5nZWxlczEVMBMGA1UECgwMRGlnaUNlcnQgSW5jMRkwFwYDVQQLDBB3d3cu
ZGlnaWNlcnQuY29tMR8wHQYDVQQDDBZpa25vdy16aGlkYW8uYmRpbWcuY29tMR8w
HQYJKoZIhvcNAQkBFhB3d3cuZGlnaWNlcnQuY29tMIGfMA0GCSqGSIb3DQEBAQUA
A4GNADCBiQKBgQC6rUwJGjyFT2DVk7yeEvSbFueL0igpq/k4meGEOhtwbqBbrfNO
ZVwZ+1aJFvtoNkMaO7YyTWNDsMUQaT2WE3+q5HTUs2Cqr1vHVvbhSVXZkrpwN3NM
kWvMEI5Y8uIbGx5yPsa7pcoI2Lsju7+GAt4R6dl5bWCmxgws4zVy8Xa/tQIDAQAB
oyUwIzAhBgNVHREEGjAYghZpa25vdy16aGlkYW8uYmRpbWcuY29tMA0GCSqGSIb3
DQEBCwUAA4IBAQB7sspI2fk0ZlzPX4w7EMu4xAPu1T/KdEMbWl9Vbwfk70PldrOl
of9u1Z4W1338gxrOkpOxRW5j+QjzQqJd4nfDFYKOws56J72Dn6vKw/KIryRyszQC
EFb6MKl6RyCqbU73ffRl9HuK66MOdYHsIdMBsgzML1sFupRZKSKY/mnhuVMNfJqs
ZkUBkA4QFhmjI/KqoO+sEaZaEvK4BgTvK4QKtlegFICHFQJ2cWs6lbsgdDqGdMei
fNhi7ZOuVSwM9Co5vypRlQT8QHPNSGCKrF4xyyNDfnk/CaTDwIvrnfjUkze8BhLX
0hO96NyrYgwBELq49DAsQca2JlEBa2vdbwDT
-----END CERTIFICATE-----
