Certificate:
    Data:
        Version: 3 (0x2)
        Serial Number: 28 (0x1c)
        Signature Algorithm: sha256WithRSAEncryption
        Issuer: C=US, ST=California, L=Los Angeles, O=DigiCert Inc, OU=www.digicert.com, CN=DigiCert Global Root CA/emailAddress=www.digicert.com
        Validity
            Not Before: Mar 21 08:59:58 2024 GMT
            Not After : Mar 19 08:59:58 2034 GMT
        Subject: C=US, ST=California, L=Los Angeles, O=DigiCert Inc, OU=www.digicert.com, CN=isaac.ele.me/emailAddress=www.digicert.com
        Subject Public Key Info:
            Public Key Algorithm: rsaEncryption
                RSA Public-Key: (1024 bit)
                Modulus:
                    00:ba:ad:4c:09:1a:3c:85:4f:60:d5:93:bc:9e:12:
                    f4:9b:16:e7:8b:d2:28:29:ab:f9:38:99:e1:84:3a:
                    1b:70:6e:a0:5b:ad:f3:4e:65:5c:19:fb:56:89:16:
                    fb:68:36:43:1a:3b:b6:32:4d:63:43:b0:c5:10:69:
                    3d:96:13:7f:aa:e4:74:d4:b3:60:aa:af:5b:c7:56:
                    f6:e1:49:55:d9:92:ba:70:37:73:4c:91:6b:cc:10:
                    8e:58:f2:e2:1b:1b:1e:72:3e:c6:bb:a5:ca:08:d8:
                    bb:23:bb:bf:86:02:de:11:e9:d9:79:6d:60:a6:c6:
                    0c:2c:e3:35:72:f1:76:bf:b5
                Exponent: 65537 (0x10001)
        X509v3 extensions:
            X509v3 Subject Alternative Name: 
                DNS:isaac.ele.me
    Signature Algorithm: sha256WithRSAEncryption
         5a:86:09:11:0a:48:bd:ca:7b:30:11:68:c1:b4:d2:d8:7a:68:
         02:40:8f:82:ae:5c:cf:cc:9b:68:32:6a:b0:e1:b7:6a:b4:13:
         dc:00:5f:30:ac:78:7d:40:bb:23:d2:5f:51:af:14:67:07:33:
         50:06:e6:b7:de:95:cc:d3:17:f7:97:a6:fc:b5:d5:5b:e6:7e:
         9a:a4:5a:f8:40:57:60:fe:24:64:4f:37:56:c3:ae:ad:67:42:
         2b:22:d4:cd:8c:49:85:9e:d8:dc:fa:ce:77:57:87:87:62:c9:
         e1:b0:d5:cb:f5:c5:71:7c:7e:83:09:14:fc:97:18:e3:a1:84:
         79:e9:76:10:bd:d2:f2:3f:77:c4:a9:8a:2e:67:72:2f:47:16:
         4e:6d:f6:15:ec:5a:95:ea:9c:59:ba:39:62:ad:ee:2f:70:5c:
         33:75:d4:36:27:5e:e2:32:bf:e4:b8:e9:68:e9:c4:56:f6:0a:
         0f:a8:c7:dd:8a:86:c2:35:40:0e:cc:d3:c7:f8:19:c6:47:22:
         4f:72:2c:f7:e5:8c:7d:40:ed:8f:c4:06:ec:86:69:56:1a:02:
         53:3a:d5:8e:b9:2d:35:f0:ae:a4:e5:ce:05:fe:6c:a8:48:17:
         ae:34:3b:c5:65:5a:0b:0b:e2:1f:3d:36:73:08:61:9b:b6:62:
         4c:e8:66:c1
-----BEGIN CERTIFICATE-----
MIIDYzCCAkugAwIBAgIBHDANBgkqhkiG9w0BAQsFADCBrTELMAkGA1UEBhMCVVMx
EzARBgNVBAgMCkNhbGlmb3JuaWExFDASBgNVBAcMC0xvcyBBbmdlbGVzMRUwEwYD
VQQKDAxEaWdpQ2VydCBJbmMxGTAXBgNVBAsMEHd3dy5kaWdpY2VydC5jb20xIDAe
BgNVBAMMF0RpZ2lDZXJ0IEdsb2JhbCBSb290IENBMR8wHQYJKoZIhvcNAQkBFhB3
d3cuZGlnaWNlcnQuY29tMB4XDTI0MDMyMTA4NTk1OFoXDTM0MDMxOTA4NTk1OFow
gaIxCzAJBgNVBAYTAlVTMRMwEQYDVQQIDApDYWxpZm9ybmlhMRQwEgYDVQQHDAtM
b3MgQW5nZWxlczEVMBMGA1UECgwMRGlnaUNlcnQgSW5jMRkwFwYDVQQLDBB3d3cu
ZGlnaWNlcnQuY29tMRUwEwYDVQQDDAxpc2FhYy5lbGUubWUxHzAdBgkqhkiG9w0B
CQEWEHd3dy5kaWdpY2VydC5jb20wgZ8wDQYJKoZIhvcNAQEBBQADgY0AMIGJAoGB
ALqtTAkaPIVPYNWTvJ4S9JsW54vSKCmr+TiZ4YQ6G3BuoFut805lXBn7VokW+2g2
Qxo7tjJNY0OwxRBpPZYTf6rkdNSzYKqvW8dW9uFJVdmSunA3c0yRa8wQjljy4hsb
HnI+xrulygjYuyO7v4YC3hHp2XltYKbGDCzjNXLxdr+1AgMBAAGjGzAZMBcGA1Ud
EQQQMA6CDGlzYWFjLmVsZS5tZTANBgkqhkiG9w0BAQsFAAOCAQEAWoYJEQpIvcp7
MBFowbTS2HpoAkCPgq5cz8ybaDJqsOG3arQT3ABfMKx4fUC7I9JfUa8UZwczUAbm
t96VzNMX95em/LXVW+Z+mqRa+EBXYP4kZE83VsOurWdCKyLUzYxJhZ7Y3PrOd1eH
h2LJ4bDVy/XFcXx+gwkU/JcY46GEeel2EL3S8j93xKmKLmdyL0cWTm32Fexaleqc
Wbo5Yq3uL3BcM3XUNide4jK/5LjpaOnEVvYKD6jH3YqGwjVADszTx/gZxkciT3Is
9+WMfUDtj8QG7IZpVhoCUzrVjrktNfCupOXOBf5sqEgXrjQ7xWVaCwviHz02cwhh
m7ZiTOhmwQ==
-----END CERTIFICATE-----
