Certificate:
    Data:
        Version: 3 (0x2)
        Serial Number: 22 (0x16)
        Signature Algorithm: sha256WithRSAEncryption
        Issuer: C=US, ST=California, L=Los Angeles, O=DigiCert Inc, OU=www.digicert.com, CN=DigiCert Global Root CA/emailAddress=www.digicert.com
        Validity
            Not Before: Mar 21 06:21:28 2024 GMT
            Not After : Mar 19 06:21:28 2034 GMT
        Subject: C=US, ST=California, L=Los Angeles, O=DigiCert Inc, OU=www.digicert.com, CN=isaac.ele.me/emailAddress=www.digicert.com
        Subject Public Key Info:
            Public Key Algorithm: rsaEncryption
                RSA Public-Key: (1024 bit)
                Modulus:
                    00:ba:ad:4c:09:1a:3c:85:4f:60:d5:93:bc:9e:12:
                    f4:9b:16:e7:8b:d2:28:29:ab:f9:38:99:e1:84:3a:
                    1b:70:6e:a0:5b:ad:f3:4e:65:5c:19:fb:56:89:16:
                    fb:68:36:43:1a:3b:b6:32:4d:63:43:b0:c5:10:69:
                    3d:96:13:7f:aa:e4:74:d4:b3:60:aa:af:5b:c7:56:
                    f6:e1:49:55:d9:92:ba:70:37:73:4c:91:6b:cc:10:
                    8e:58:f2:e2:1b:1b:1e:72:3e:c6:bb:a5:ca:08:d8:
                    bb:23:bb:bf:86:02:de:11:e9:d9:79:6d:60:a6:c6:
                    0c:2c:e3:35:72:f1:76:bf:b5
                Exponent: 65537 (0x10001)
        X509v3 extensions:
            X509v3 Subject Alternative Name: 
                DNS:isaac.ele.me
    Signature Algorithm: sha256WithRSAEncryption
         1e:3d:52:cc:82:c6:e1:b9:80:b4:85:0f:00:a3:7e:c1:2e:c7:
         3d:68:68:fe:70:57:b6:22:aa:a8:31:8e:69:86:be:15:31:40:
         33:18:8d:fc:51:12:44:e8:4a:ad:68:24:2c:9b:91:24:15:e4:
         c5:5e:89:66:89:a1:c4:a4:57:87:fe:d6:d2:ed:ba:f6:fd:ee:
         66:d6:9b:92:53:8d:ce:b8:b2:2f:6a:5b:a6:02:25:4f:72:b4:
         29:3e:c9:e8:22:12:71:62:ff:a6:2d:98:2c:af:5c:ad:e8:5c:
         1a:70:49:e2:f3:cb:67:ba:07:85:5f:78:a8:a9:be:47:26:69:
         92:65:d9:98:e1:8a:55:4d:ed:92:9e:2e:4d:4b:05:d3:45:16:
         da:5b:44:44:9e:2e:d0:3a:8f:95:c6:2d:50:20:82:18:f3:b0:
         3b:13:0e:66:5a:6a:72:19:b5:f9:65:47:2c:3c:1c:c1:66:5c:
         f8:ab:90:c8:6a:be:77:b6:02:98:68:4c:00:a1:d2:6c:c2:65:
         bc:52:d8:c1:c2:cb:37:e6:8f:0d:ce:40:7a:42:e5:52:ec:a2:
         9a:dd:45:93:ba:c1:bf:30:62:58:9c:aa:7e:b2:90:5f:f5:1f:
         ed:b4:fb:2b:eb:aa:35:cb:e6:81:fb:99:6c:14:15:13:54:52:
         dc:6e:b0:4a
-----BEGIN CERTIFICATE-----
MIIDYzCCAkugAwIBAgIBFjANBgkqhkiG9w0BAQsFADCBrTELMAkGA1UEBhMCVVMx
EzARBgNVBAgMCkNhbGlmb3JuaWExFDASBgNVBAcMC0xvcyBBbmdlbGVzMRUwEwYD
VQQKDAxEaWdpQ2VydCBJbmMxGTAXBgNVBAsMEHd3dy5kaWdpY2VydC5jb20xIDAe
BgNVBAMMF0RpZ2lDZXJ0IEdsb2JhbCBSb290IENBMR8wHQYJKoZIhvcNAQkBFhB3
d3cuZGlnaWNlcnQuY29tMB4XDTI0MDMyMTA2MjEyOFoXDTM0MDMxOTA2MjEyOFow
gaIxCzAJBgNVBAYTAlVTMRMwEQYDVQQIDApDYWxpZm9ybmlhMRQwEgYDVQQHDAtM
b3MgQW5nZWxlczEVMBMGA1UECgwMRGlnaUNlcnQgSW5jMRkwFwYDVQQLDBB3d3cu
ZGlnaWNlcnQuY29tMRUwEwYDVQQDDAxpc2FhYy5lbGUubWUxHzAdBgkqhkiG9w0B
CQEWEHd3dy5kaWdpY2VydC5jb20wgZ8wDQYJKoZIhvcNAQEBBQADgY0AMIGJAoGB
ALqtTAkaPIVPYNWTvJ4S9JsW54vSKCmr+TiZ4YQ6G3BuoFut805lXBn7VokW+2g2
Qxo7tjJNY0OwxRBpPZYTf6rkdNSzYKqvW8dW9uFJVdmSunA3c0yRa8wQjljy4hsb
HnI+xrulygjYuyO7v4YC3hHp2XltYKbGDCzjNXLxdr+1AgMBAAGjGzAZMBcGA1Ud
EQQQMA6CDGlzYWFjLmVsZS5tZTANBgkqhkiG9w0BAQsFAAOCAQEAHj1SzILG4bmA
tIUPAKN+wS7HPWho/nBXtiKqqDGOaYa+FTFAMxiN/FESROhKrWgkLJuRJBXkxV6J
ZomhxKRXh/7W0u269v3uZtabklONzriyL2pbpgIlT3K0KT7J6CIScWL/pi2YLK9c
rehcGnBJ4vPLZ7oHhV94qKm+RyZpkmXZmOGKVU3tkp4uTUsF00UW2ltERJ4u0DqP
lcYtUCCCGPOwOxMOZlpqchm1+WVHLDwcwWZc+KuQyGq+d7YCmGhMAKHSbMJlvFLY
wcLLN+aPDc5AekLlUuyimt1Fk7rBvzBiWJyqfrKQX/Uf7bT7K+uqNcvmgfuZbBQV
E1RS3G6wSg==
-----END CERTIFICATE-----
