Certificate:
    Data:
        Version: 3 (0x2)
        Serial Number: 45 (0x2d)
        Signature Algorithm: sha256WithRSAEncryption
        Issuer: C=US, ST=California, L=Los Angeles, O=DigiCert Inc, OU=www.digicert.com, CN=DigiCert Global Root CA/emailAddress=www.digicert.com
        Validity
            Not Before: Mar 21 09:07:55 2024 GMT
            Not After : Mar 19 09:07:55 2034 GMT
        Subject: C=US, ST=California, L=Los Angeles, O=DigiCert Inc, OU=www.digicert.com, CN=kstj.baidu.com/emailAddress=www.digicert.com
        Subject Public Key Info:
            Public Key Algorithm: rsaEncryption
                RSA Public-Key: (1024 bit)
                Modulus:
                    00:ba:ad:4c:09:1a:3c:85:4f:60:d5:93:bc:9e:12:
                    f4:9b:16:e7:8b:d2:28:29:ab:f9:38:99:e1:84:3a:
                    1b:70:6e:a0:5b:ad:f3:4e:65:5c:19:fb:56:89:16:
                    fb:68:36:43:1a:3b:b6:32:4d:63:43:b0:c5:10:69:
                    3d:96:13:7f:aa:e4:74:d4:b3:60:aa:af:5b:c7:56:
                    f6:e1:49:55:d9:92:ba:70:37:73:4c:91:6b:cc:10:
                    8e:58:f2:e2:1b:1b:1e:72:3e:c6:bb:a5:ca:08:d8:
                    bb:23:bb:bf:86:02:de:11:e9:d9:79:6d:60:a6:c6:
                    0c:2c:e3:35:72:f1:76:bf:b5
                Exponent: 65537 (0x10001)
        X509v3 extensions:
            X509v3 Subject Alternative Name: 
                DNS:kstj.baidu.com
    Signature Algorithm: sha256WithRSAEncryption
         37:e1:14:91:c4:1d:89:7e:5f:0f:30:7d:6e:ce:5d:9e:3f:51:
         3c:3f:33:1b:6b:6c:20:2f:27:38:9c:30:d7:26:d5:84:fa:a4:
         6f:05:32:3f:74:b4:2b:68:56:2c:85:75:ca:7f:98:3d:7c:1c:
         1f:ca:f1:96:4e:af:34:50:cd:03:28:8f:0a:c9:e2:49:23:f8:
         d9:cf:52:8e:79:10:5a:3e:dc:15:a6:44:79:2b:45:20:65:df:
         93:3e:80:f2:3e:47:84:83:5f:a4:16:00:36:13:79:7d:30:01:
         23:2b:3c:c0:84:21:98:90:93:99:2c:fa:5b:0f:95:1b:6f:2d:
         f5:ee:9d:b8:71:73:34:72:ec:91:f0:70:84:d8:5b:8b:b4:7a:
         cf:8e:e2:7d:05:cb:02:ab:c2:86:6e:b3:20:0e:62:47:f8:97:
         3f:b5:dc:9c:ae:13:dd:b3:66:ed:b8:e0:52:42:c2:04:72:75:
         05:b8:2f:1b:b1:e7:05:fb:1f:a9:80:21:84:be:1f:33:ad:f9:
         82:3a:4e:c3:ea:c0:1a:d2:1d:f3:1e:63:a0:97:57:eb:ce:e8:
         f3:1b:3d:2c:88:38:f5:fb:fd:a7:4f:1b:92:cb:82:7c:b6:e5:
         be:3b:da:e5:96:1c:a9:82:50:36:68:7b:86:27:20:51:86:53:
         da:99:a6:69
-----BEGIN CERTIFICATE-----
MIIDZzCCAk+gAwIBAgIBLTANBgkqhkiG9w0BAQsFADCBrTELMAkGA1UEBhMCVVMx
EzARBgNVBAgMCkNhbGlmb3JuaWExFDASBgNVBAcMC0xvcyBBbmdlbGVzMRUwEwYD
VQQKDAxEaWdpQ2VydCBJbmMxGTAXBgNVBAsMEHd3dy5kaWdpY2VydC5jb20xIDAe
BgNVBAMMF0RpZ2lDZXJ0IEdsb2JhbCBSb290IENBMR8wHQYJKoZIhvcNAQkBFhB3
d3cuZGlnaWNlcnQuY29tMB4XDTI0MDMyMTA5MDc1NVoXDTM0MDMxOTA5MDc1NVow
gaQxCzAJBgNVBAYTAlVTMRMwEQYDVQQIDApDYWxpZm9ybmlhMRQwEgYDVQQHDAtM
b3MgQW5nZWxlczEVMBMGA1UECgwMRGlnaUNlcnQgSW5jMRkwFwYDVQQLDBB3d3cu
ZGlnaWNlcnQuY29tMRcwFQYDVQQDDA5rc3RqLmJhaWR1LmNvbTEfMB0GCSqGSIb3
DQEJARYQd3d3LmRpZ2ljZXJ0LmNvbTCBnzANBgkqhkiG9w0BAQEFAAOBjQAwgYkC
gYEAuq1MCRo8hU9g1ZO8nhL0mxbni9IoKav5OJnhhDobcG6gW63zTmVcGftWiRb7
aDZDGju2Mk1jQ7DFEGk9lhN/quR01LNgqq9bx1b24UlV2ZK6cDdzTJFrzBCOWPLi
Gxsecj7Gu6XKCNi7I7u/hgLeEenZeW1gpsYMLOM1cvF2v7UCAwEAAaMdMBswGQYD
VR0RBBIwEIIOa3N0ai5iYWlkdS5jb20wDQYJKoZIhvcNAQELBQADggEBADfhFJHE
HYl+Xw8wfW7OXZ4/UTw/MxtrbCAvJzicMNcm1YT6pG8FMj90tCtoViyFdcp/mD18
HB/K8ZZOrzRQzQMojwrJ4kkj+NnPUo55EFo+3BWmRHkrRSBl35M+gPI+R4SDX6QW
ADYTeX0wASMrPMCEIZiQk5ks+lsPlRtvLfXunbhxczRy7JHwcITYW4u0es+O4n0F
ywKrwoZusyAOYkf4lz+13JyuE92zZu244FJCwgRydQW4Lxux5wX7H6mAIYS+HzOt
+YI6TsPqwBrSHfMeY6CXV+vO6PMbPSyIOPX7/adPG5LLgny25b472uWWHKmCUDZo
e4YnIFGGU9qZpmk=
-----END CERTIFICATE-----
