Certificate:
    Data:
        Version: 3 (0x2)
        Serial Number: 31 (0x1f)
        Signature Algorithm: sha256WithRSAEncryption
        Issuer: C=US, ST=California, L=Los Angeles, O=DigiCert Inc, OU=www.digicert.com, CN=DigiCert Global Root CA/emailAddress=www.digicert.com
        Validity
            Not Before: Mar 21 06:28:22 2024 GMT
            Not After : Mar 19 06:28:22 2034 GMT
        Subject: C=US, ST=California, L=Los Angeles, O=DigiCert Inc, OU=www.digicert.com, CN=kv801.prod.do.dsp.mp.microsoft.com/emailAddress=www.digicert.com
        Subject Public Key Info:
            Public Key Algorithm: rsaEncryption
                RSA Public-Key: (1024 bit)
                Modulus:
                    00:ba:ad:4c:09:1a:3c:85:4f:60:d5:93:bc:9e:12:
                    f4:9b:16:e7:8b:d2:28:29:ab:f9:38:99:e1:84:3a:
                    1b:70:6e:a0:5b:ad:f3:4e:65:5c:19:fb:56:89:16:
                    fb:68:36:43:1a:3b:b6:32:4d:63:43:b0:c5:10:69:
                    3d:96:13:7f:aa:e4:74:d4:b3:60:aa:af:5b:c7:56:
                    f6:e1:49:55:d9:92:ba:70:37:73:4c:91:6b:cc:10:
                    8e:58:f2:e2:1b:1b:1e:72:3e:c6:bb:a5:ca:08:d8:
                    bb:23:bb:bf:86:02:de:11:e9:d9:79:6d:60:a6:c6:
                    0c:2c:e3:35:72:f1:76:bf:b5
                Exponent: 65537 (0x10001)
        X509v3 extensions:
            X509v3 Subject Alternative Name: 
                DNS:kv801.prod.do.dsp.mp.microsoft.com
    Signature Algorithm: sha256WithRSAEncryption
         b7:6a:28:a2:2c:e6:66:f1:9f:27:56:73:dc:e6:dc:35:49:38:
         ff:d9:1a:c9:f1:84:0a:f7:7f:ad:32:d9:c4:29:8e:90:c6:61:
         15:7e:58:47:0b:1e:5d:48:81:42:d5:76:91:35:e7:e7:38:2f:
         1a:92:43:13:2f:74:64:5d:99:3b:a1:95:93:b0:c7:46:84:16:
         6a:1f:2d:33:62:6f:55:f9:62:99:a0:e2:ec:b9:c4:49:24:8a:
         94:49:b0:ec:4d:e3:6c:c3:58:53:cc:b9:65:9a:e1:99:b9:17:
         a6:59:73:0b:e6:c6:40:a0:05:e4:47:be:67:90:0a:5a:76:1f:
         7e:58:ef:e1:d6:2a:dc:52:dd:ff:82:93:6e:bc:e5:8d:42:f2:
         de:16:ef:55:d2:a3:4c:62:8a:f6:2c:39:2b:52:2f:6b:25:03:
         cc:b9:7f:70:81:7b:0b:c3:62:09:ba:1c:bf:31:72:f1:97:6d:
         56:5a:c3:c7:02:01:b2:9c:d4:54:08:2d:47:14:aa:16:66:19:
         1b:a8:06:c8:08:65:39:ea:55:9c:a0:37:82:a7:41:6c:83:ea:
         7b:e5:85:83:b1:84:4b:c8:90:ce:e6:ab:b9:b6:e0:a8:f7:e9:
         3d:cc:8f:12:e9:76:5e:78:c4:ac:e4:77:8d:77:a3:b4:40:49:
         27:05:11:79
-----BEGIN CERTIFICATE-----
MIIDjzCCAnegAwIBAgIBHzANBgkqhkiG9w0BAQsFADCBrTELMAkGA1UEBhMCVVMx
EzARBgNVBAgMCkNhbGlmb3JuaWExFDASBgNVBAcMC0xvcyBBbmdlbGVzMRUwEwYD
VQQKDAxEaWdpQ2VydCBJbmMxGTAXBgNVBAsMEHd3dy5kaWdpY2VydC5jb20xIDAe
BgNVBAMMF0RpZ2lDZXJ0IEdsb2JhbCBSb290IENBMR8wHQYJKoZIhvcNAQkBFhB3
d3cuZGlnaWNlcnQuY29tMB4XDTI0MDMyMTA2MjgyMloXDTM0MDMxOTA2MjgyMlow
gbgxCzAJBgNVBAYTAlVTMRMwEQYDVQQIDApDYWxpZm9ybmlhMRQwEgYDVQQHDAtM
b3MgQW5nZWxlczEVMBMGA1UECgwMRGlnaUNlcnQgSW5jMRkwFwYDVQQLDBB3d3cu
ZGlnaWNlcnQuY29tMSswKQYDVQQDDCJrdjgwMS5wcm9kLmRvLmRzcC5tcC5taWNy
b3NvZnQuY29tMR8wHQYJKoZIhvcNAQkBFhB3d3cuZGlnaWNlcnQuY29tMIGfMA0G
CSqGSIb3DQEBAQUAA4GNADCBiQKBgQC6rUwJGjyFT2DVk7yeEvSbFueL0igpq/k4
meGEOhtwbqBbrfNOZVwZ+1aJFvtoNkMaO7YyTWNDsMUQaT2WE3+q5HTUs2Cqr1vH
VvbhSVXZkrpwN3NMkWvMEI5Y8uIbGx5yPsa7pcoI2Lsju7+GAt4R6dl5bWCmxgws
4zVy8Xa/tQIDAQABozEwLzAtBgNVHREEJjAkgiJrdjgwMS5wcm9kLmRvLmRzcC5t
cC5taWNyb3NvZnQuY29tMA0GCSqGSIb3DQEBCwUAA4IBAQC3aiiiLOZm8Z8nVnPc
5tw1STj/2RrJ8YQK93+tMtnEKY6QxmEVflhHCx5dSIFC1XaRNefnOC8akkMTL3Rk
XZk7oZWTsMdGhBZqHy0zYm9V+WKZoOLsucRJJIqUSbDsTeNsw1hTzLllmuGZuRem
WXML5sZAoAXkR75nkApadh9+WO/h1ircUt3/gpNuvOWNQvLeFu9V0qNMYor2LDkr
Ui9rJQPMuX9wgXsLw2IJuhy/MXLxl21WWsPHAgGynNRUCC1HFKoWZhkbqAbICGU5
6lWcoDeCp0Fsg+p75YWDsYRLyJDO5qu5tuCo9+k9zI8S6XZeeMSs5HeNd6O0QEkn
BRF5
-----END CERTIFICATE-----
