Certificate:
    Data:
        Version: 3 (0x2)
        Serial Number: 18 (0x12)
        Signature Algorithm: sha256WithRSAEncryption
        Issuer: C=US, ST=California, L=Los Angeles, O=DigiCert Inc, OU=www.digicert.com, CN=DigiCert Global Root CA/emailAddress=www.digicert.com
        Validity
            Not Before: Mar 21 06:20:47 2024 GMT
            Not After : Mar 19 06:20:47 2034 GMT
        Subject: C=US, ST=California, L=Los Angeles, O=DigiCert Inc, OU=www.digicert.com, CN=lib.sinaapp.com/emailAddress=www.digicert.com
        Subject Public Key Info:
            Public Key Algorithm: rsaEncryption
                RSA Public-Key: (1024 bit)
                Modulus:
                    00:ba:ad:4c:09:1a:3c:85:4f:60:d5:93:bc:9e:12:
                    f4:9b:16:e7:8b:d2:28:29:ab:f9:38:99:e1:84:3a:
                    1b:70:6e:a0:5b:ad:f3:4e:65:5c:19:fb:56:89:16:
                    fb:68:36:43:1a:3b:b6:32:4d:63:43:b0:c5:10:69:
                    3d:96:13:7f:aa:e4:74:d4:b3:60:aa:af:5b:c7:56:
                    f6:e1:49:55:d9:92:ba:70:37:73:4c:91:6b:cc:10:
                    8e:58:f2:e2:1b:1b:1e:72:3e:c6:bb:a5:ca:08:d8:
                    bb:23:bb:bf:86:02:de:11:e9:d9:79:6d:60:a6:c6:
                    0c:2c:e3:35:72:f1:76:bf:b5
                Exponent: 65537 (0x10001)
        X509v3 extensions:
            X509v3 Subject Alternative Name: 
                DNS:lib.sinaapp.com
    Signature Algorithm: sha256WithRSAEncryption
         87:9e:b3:3a:8a:35:b8:52:e0:16:22:42:1b:4c:7f:d4:63:a8:
         e0:3a:1c:89:79:10:c1:7d:13:81:3c:3a:38:df:e0:57:df:d1:
         22:7e:8a:aa:42:41:c5:c5:5e:25:82:46:56:7a:5b:b9:09:1f:
         ee:5e:b3:4f:15:c2:b7:a1:c5:7f:8c:40:a7:fb:cf:ba:fe:2c:
         85:01:5d:e1:59:96:04:e3:7a:56:b2:60:a5:3b:f0:3e:1b:f3:
         86:b4:cf:e1:2a:a4:5a:e0:5c:c9:43:a5:1b:6b:fe:67:bd:76:
         e3:fb:8c:03:36:5b:24:88:27:e0:7d:80:dd:13:11:1e:8f:f3:
         b3:b9:2d:0f:32:95:e4:7c:c9:f6:a2:5c:87:84:7a:af:9d:7f:
         cd:f8:2c:2c:3b:06:ed:0b:fa:0d:00:21:c3:60:b8:ed:39:7d:
         c0:a5:cb:ca:fa:f7:5f:50:10:17:c5:f0:33:13:42:f2:85:0e:
         e8:c4:d0:20:e6:94:ae:61:87:f1:c3:21:93:33:19:b7:cd:6c:
         5b:a0:5d:ef:4a:5b:ae:c6:c9:a0:bc:3b:d4:32:8a:10:7c:21:
         fb:f7:d6:97:40:53:18:c7:1e:54:25:c8:17:6c:25:46:66:1b:
         aa:e1:2d:d3:e5:b8:a8:33:90:44:49:1a:8f:91:8a:f2:5f:66:
         f1:a7:cd:ed
-----BEGIN CERTIFICATE-----
MIIDaTCCAlGgAwIBAgIBEjANBgkqhkiG9w0BAQsFADCBrTELMAkGA1UEBhMCVVMx
EzARBgNVBAgMCkNhbGlmb3JuaWExFDASBgNVBAcMC0xvcyBBbmdlbGVzMRUwEwYD
VQQKDAxEaWdpQ2VydCBJbmMxGTAXBgNVBAsMEHd3dy5kaWdpY2VydC5jb20xIDAe
BgNVBAMMF0RpZ2lDZXJ0IEdsb2JhbCBSb290IENBMR8wHQYJKoZIhvcNAQkBFhB3
d3cuZGlnaWNlcnQuY29tMB4XDTI0MDMyMTA2MjA0N1oXDTM0MDMxOTA2MjA0N1ow
gaUxCzAJBgNVBAYTAlVTMRMwEQYDVQQIDApDYWxpZm9ybmlhMRQwEgYDVQQHDAtM
b3MgQW5nZWxlczEVMBMGA1UECgwMRGlnaUNlcnQgSW5jMRkwFwYDVQQLDBB3d3cu
ZGlnaWNlcnQuY29tMRgwFgYDVQQDDA9saWIuc2luYWFwcC5jb20xHzAdBgkqhkiG
9w0BCQEWEHd3dy5kaWdpY2VydC5jb20wgZ8wDQYJKoZIhvcNAQEBBQADgY0AMIGJ
AoGBALqtTAkaPIVPYNWTvJ4S9JsW54vSKCmr+TiZ4YQ6G3BuoFut805lXBn7VokW
+2g2Qxo7tjJNY0OwxRBpPZYTf6rkdNSzYKqvW8dW9uFJVdmSunA3c0yRa8wQjljy
4hsbHnI+xrulygjYuyO7v4YC3hHp2XltYKbGDCzjNXLxdr+1AgMBAAGjHjAcMBoG
A1UdEQQTMBGCD2xpYi5zaW5hYXBwLmNvbTANBgkqhkiG9w0BAQsFAAOCAQEAh56z
Ooo1uFLgFiJCG0x/1GOo4DociXkQwX0TgTw6ON/gV9/RIn6KqkJBxcVeJYJGVnpb
uQkf7l6zTxXCt6HFf4xAp/vPuv4shQFd4VmWBON6VrJgpTvwPhvzhrTP4SqkWuBc
yUOlG2v+Z7124/uMAzZbJIgn4H2A3RMRHo/zs7ktDzKV5HzJ9qJch4R6r51/zfgs
LDsG7Qv6DQAhw2C47Tl9wKXLyvr3X1AQF8XwMxNC8oUO6MTQIOaUrmGH8cMhkzMZ
t81sW6Bd70pbrsbJoLw71DKKEHwh+/fWl0BTGMceVCXIF2wlRmYbquEt0+W4qDOQ
REkaj5GK8l9m8afN7Q==
-----END CERTIFICATE-----
