Certificate:
    Data:
        Version: 3 (0x2)
        Serial Number: 18 (0x12)
        Signature Algorithm: sha256WithRSAEncryption
        Issuer: C=US, ST=California, L=Los Angeles, O=DigiCert Inc, OU=www.digicert.com, CN=DigiCert Global Root CA/emailAddress=www.digicert.com
        Validity
            Not Before: Mar 21 08:57:19 2024 GMT
            Not After : Mar 19 08:57:19 2034 GMT
        Subject: C=US, ST=California, L=Los Angeles, O=DigiCert Inc, OU=www.digicert.com, CN=log.mmstat.com/emailAddress=www.digicert.com
        Subject Public Key Info:
            Public Key Algorithm: rsaEncryption
                RSA Public-Key: (1024 bit)
                Modulus:
                    00:ba:ad:4c:09:1a:3c:85:4f:60:d5:93:bc:9e:12:
                    f4:9b:16:e7:8b:d2:28:29:ab:f9:38:99:e1:84:3a:
                    1b:70:6e:a0:5b:ad:f3:4e:65:5c:19:fb:56:89:16:
                    fb:68:36:43:1a:3b:b6:32:4d:63:43:b0:c5:10:69:
                    3d:96:13:7f:aa:e4:74:d4:b3:60:aa:af:5b:c7:56:
                    f6:e1:49:55:d9:92:ba:70:37:73:4c:91:6b:cc:10:
                    8e:58:f2:e2:1b:1b:1e:72:3e:c6:bb:a5:ca:08:d8:
                    bb:23:bb:bf:86:02:de:11:e9:d9:79:6d:60:a6:c6:
                    0c:2c:e3:35:72:f1:76:bf:b5
                Exponent: 65537 (0x10001)
        X509v3 extensions:
            X509v3 Subject Alternative Name: 
                DNS:log.mmstat.com
    Signature Algorithm: sha256WithRSAEncryption
         56:6e:65:6f:55:57:ec:94:8e:76:be:6b:35:15:a6:b4:6d:99:
         80:96:dd:2e:cc:67:08:4b:86:10:6f:9a:3d:0e:ec:04:f0:2d:
         b2:83:b5:5a:d4:2f:75:d4:d2:27:07:0b:63:5d:40:44:6c:97:
         2d:4a:49:04:7a:3a:5d:f2:6f:69:f0:55:f0:e0:0c:24:b1:0f:
         1f:ba:ea:0f:fd:e8:66:a4:59:d6:bc:1a:5c:a0:bf:07:cc:12:
         27:4d:46:67:00:6f:13:dc:b9:81:c3:b0:5f:ec:a8:15:b9:da:
         fe:e8:c7:2d:b6:de:30:e9:d0:6e:c7:98:26:f3:d1:af:89:1f:
         2f:ad:51:6d:21:cc:93:fb:4d:a1:da:01:67:30:7e:45:a2:dc:
         27:7a:67:d1:2f:f2:bd:a7:4d:3f:16:ef:45:dd:a6:f9:25:6b:
         e2:56:a8:fb:b3:f0:81:e1:1f:74:25:1d:1d:d5:9f:01:75:07:
         c0:0f:e1:e7:ae:8c:c0:30:c4:d4:87:d8:bf:46:f5:66:f6:2f:
         40:a0:c0:5d:51:62:4f:94:21:83:7b:fa:c6:cf:3f:d9:43:84:
         e5:8a:43:c0:f7:4b:40:f1:ed:18:e7:2f:91:df:10:4e:01:6f:
         b7:78:60:18:13:36:d8:19:8e:44:4a:c8:c1:ae:3c:87:3c:76:
         7c:67:86:4b
-----BEGIN CERTIFICATE-----
MIIDZzCCAk+gAwIBAgIBEjANBgkqhkiG9w0BAQsFADCBrTELMAkGA1UEBhMCVVMx
EzARBgNVBAgMCkNhbGlmb3JuaWExFDASBgNVBAcMC0xvcyBBbmdlbGVzMRUwEwYD
VQQKDAxEaWdpQ2VydCBJbmMxGTAXBgNVBAsMEHd3dy5kaWdpY2VydC5jb20xIDAe
BgNVBAMMF0RpZ2lDZXJ0IEdsb2JhbCBSb290IENBMR8wHQYJKoZIhvcNAQkBFhB3
d3cuZGlnaWNlcnQuY29tMB4XDTI0MDMyMTA4NTcxOVoXDTM0MDMxOTA4NTcxOVow
gaQxCzAJBgNVBAYTAlVTMRMwEQYDVQQIDApDYWxpZm9ybmlhMRQwEgYDVQQHDAtM
b3MgQW5nZWxlczEVMBMGA1UECgwMRGlnaUNlcnQgSW5jMRkwFwYDVQQLDBB3d3cu
ZGlnaWNlcnQuY29tMRcwFQYDVQQDDA5sb2cubW1zdGF0LmNvbTEfMB0GCSqGSIb3
DQEJARYQd3d3LmRpZ2ljZXJ0LmNvbTCBnzANBgkqhkiG9w0BAQEFAAOBjQAwgYkC
gYEAuq1MCRo8hU9g1ZO8nhL0mxbni9IoKav5OJnhhDobcG6gW63zTmVcGftWiRb7
aDZDGju2Mk1jQ7DFEGk9lhN/quR01LNgqq9bx1b24UlV2ZK6cDdzTJFrzBCOWPLi
Gxsecj7Gu6XKCNi7I7u/hgLeEenZeW1gpsYMLOM1cvF2v7UCAwEAAaMdMBswGQYD
VR0RBBIwEIIObG9nLm1tc3RhdC5jb20wDQYJKoZIhvcNAQELBQADggEBAFZuZW9V
V+yUjna+azUVprRtmYCW3S7MZwhLhhBvmj0O7ATwLbKDtVrUL3XU0icHC2NdQERs
ly1KSQR6Ol3yb2nwVfDgDCSxDx+66g/96GakWda8GlygvwfMEidNRmcAbxPcuYHD
sF/sqBW52v7oxy223jDp0G7HmCbz0a+JHy+tUW0hzJP7TaHaAWcwfkWi3Cd6Z9Ev
8r2nTT8W70Xdpvkla+JWqPuz8IHhH3QlHR3VnwF1B8AP4eeujMAwxNSH2L9G9Wb2
L0CgwF1RYk+UIYN7+sbPP9lDhOWKQ8D3S0Dx7RjnL5HfEE4Bb7d4YBgTNtgZjkRK
yMGuPIc8dnxnhks=
-----END CERTIFICATE-----
