Certificate:
    Data:
        Version: 3 (0x2)
        Serial Number: 11 (0xb)
        Signature Algorithm: sha256WithRSAEncryption
        Issuer: C=US, ST=California, L=Los Angeles, O=DigiCert Inc, OU=www.digicert.com, CN=DigiCert Global Root CA/emailAddress=www.digicert.com
        Validity
            Not Before: Mar 26 09:57:51 2024 GMT
            Not After : Mar 24 09:57:51 2034 GMT
        Subject: C=US, ST=California, L=Los Angeles, O=DigiCert Inc, OU=www.digicert.com, CN=lx.meituan.net/emailAddress=www.digicert.com
        Subject Public Key Info:
            Public Key Algorithm: rsaEncryption
                RSA Public-Key: (1024 bit)
                Modulus:
                    00:ba:ad:4c:09:1a:3c:85:4f:60:d5:93:bc:9e:12:
                    f4:9b:16:e7:8b:d2:28:29:ab:f9:38:99:e1:84:3a:
                    1b:70:6e:a0:5b:ad:f3:4e:65:5c:19:fb:56:89:16:
                    fb:68:36:43:1a:3b:b6:32:4d:63:43:b0:c5:10:69:
                    3d:96:13:7f:aa:e4:74:d4:b3:60:aa:af:5b:c7:56:
                    f6:e1:49:55:d9:92:ba:70:37:73:4c:91:6b:cc:10:
                    8e:58:f2:e2:1b:1b:1e:72:3e:c6:bb:a5:ca:08:d8:
                    bb:23:bb:bf:86:02:de:11:e9:d9:79:6d:60:a6:c6:
                    0c:2c:e3:35:72:f1:76:bf:b5
                Exponent: 65537 (0x10001)
        X509v3 extensions:
            X509v3 Subject Alternative Name: 
                DNS:lx.meituan.net
    Signature Algorithm: sha256WithRSAEncryption
         37:ad:3e:a8:fe:8e:ca:fb:08:f4:ff:71:27:be:9a:fd:f1:19:
         73:58:5c:da:3d:82:8e:28:88:90:50:5a:d9:5c:e4:5c:d7:fb:
         8b:63:d4:2a:19:8a:91:c5:00:85:29:23:83:94:da:fd:e6:20:
         69:56:27:6d:b1:f1:ad:cf:d8:2b:78:b6:f2:3f:3c:44:b8:5d:
         6f:35:e8:e7:2a:b1:a0:1e:fe:0b:26:7d:39:bd:86:5b:53:a2:
         00:d2:73:6f:02:13:a0:fd:0e:96:fd:8b:cb:84:be:b3:66:77:
         13:17:9f:72:91:49:cf:82:ed:0f:1b:19:aa:7e:04:62:c0:7c:
         0c:6f:78:7c:21:e1:90:b1:bd:11:56:8a:47:b6:33:e7:91:79:
         cf:94:6b:13:b4:e1:6a:a3:d2:6b:27:2c:28:67:74:e9:f1:75:
         80:74:bb:0d:f7:fd:1a:eb:db:f1:86:c9:c1:c4:f3:f3:64:d9:
         72:44:fc:13:48:54:ee:4a:da:59:b3:d2:b1:00:5c:43:b2:a8:
         d4:d2:50:a5:ca:38:2a:be:f9:cf:19:38:d4:32:9d:41:6d:54:
         74:de:b1:94:cc:f1:4c:b4:3c:5e:b0:45:e9:6a:34:f0:29:5c:
         89:6c:4d:3f:1d:a4:b6:05:6c:15:be:90:97:47:52:a4:de:aa:
         77:a7:a2:1b
-----BEGIN CERTIFICATE-----
MIIDZzCCAk+gAwIBAgIBCzANBgkqhkiG9w0BAQsFADCBrTELMAkGA1UEBhMCVVMx
EzARBgNVBAgMCkNhbGlmb3JuaWExFDASBgNVBAcMC0xvcyBBbmdlbGVzMRUwEwYD
VQQKDAxEaWdpQ2VydCBJbmMxGTAXBgNVBAsMEHd3dy5kaWdpY2VydC5jb20xIDAe
BgNVBAMMF0RpZ2lDZXJ0IEdsb2JhbCBSb290IENBMR8wHQYJKoZIhvcNAQkBFhB3
d3cuZGlnaWNlcnQuY29tMB4XDTI0MDMyNjA5NTc1MVoXDTM0MDMyNDA5NTc1MVow
gaQxCzAJBgNVBAYTAlVTMRMwEQYDVQQIDApDYWxpZm9ybmlhMRQwEgYDVQQHDAtM
b3MgQW5nZWxlczEVMBMGA1UECgwMRGlnaUNlcnQgSW5jMRkwFwYDVQQLDBB3d3cu
ZGlnaWNlcnQuY29tMRcwFQYDVQQDDA5seC5tZWl0dWFuLm5ldDEfMB0GCSqGSIb3
DQEJARYQd3d3LmRpZ2ljZXJ0LmNvbTCBnzANBgkqhkiG9w0BAQEFAAOBjQAwgYkC
gYEAuq1MCRo8hU9g1ZO8nhL0mxbni9IoKav5OJnhhDobcG6gW63zTmVcGftWiRb7
aDZDGju2Mk1jQ7DFEGk9lhN/quR01LNgqq9bx1b24UlV2ZK6cDdzTJFrzBCOWPLi
Gxsecj7Gu6XKCNi7I7u/hgLeEenZeW1gpsYMLOM1cvF2v7UCAwEAAaMdMBswGQYD
VR0RBBIwEIIObHgubWVpdHVhbi5uZXQwDQYJKoZIhvcNAQELBQADggEBADetPqj+
jsr7CPT/cSe+mv3xGXNYXNo9go4oiJBQWtlc5FzX+4tj1CoZipHFAIUpI4OU2v3m
IGlWJ22x8a3P2Ct4tvI/PES4XW816OcqsaAe/gsmfTm9hltTogDSc28CE6D9Dpb9
i8uEvrNmdxMXn3KRSc+C7Q8bGap+BGLAfAxveHwh4ZCxvRFWike2M+eRec+UaxO0
4Wqj0msnLChndOnxdYB0uw33/Rrr2/GGycHE8/Nk2XJE/BNIVO5K2lmz0rEAXEOy
qNTSUKXKOCq++c8ZONQynUFtVHTesZTM8Uy0PF6wRelqNPApXIlsTT8dpLYFbBW+
kJdHUqTeqnenohs=
-----END CERTIFICATE-----
