Certificate:
    Data:
        Version: 3 (0x2)
        Serial Number: 6 (0x6)
        Signature Algorithm: sha256WithRSAEncryption
        Issuer: C=US, ST=California, L=Los Angeles, O=DigiCert Inc, OU=www.digicert.com, CN=DigiCert Global Root CA/emailAddress=www.digicert.com
        Validity
            Not Before: Mar 26 09:57:34 2024 GMT
            Not After : Mar 24 09:57:34 2034 GMT
        Subject: C=US, ST=California, L=Los Angeles, O=DigiCert Inc, OU=www.digicert.com, CN=lx2.meituan.net/emailAddress=www.digicert.com
        Subject Public Key Info:
            Public Key Algorithm: rsaEncryption
                RSA Public-Key: (1024 bit)
                Modulus:
                    00:ba:ad:4c:09:1a:3c:85:4f:60:d5:93:bc:9e:12:
                    f4:9b:16:e7:8b:d2:28:29:ab:f9:38:99:e1:84:3a:
                    1b:70:6e:a0:5b:ad:f3:4e:65:5c:19:fb:56:89:16:
                    fb:68:36:43:1a:3b:b6:32:4d:63:43:b0:c5:10:69:
                    3d:96:13:7f:aa:e4:74:d4:b3:60:aa:af:5b:c7:56:
                    f6:e1:49:55:d9:92:ba:70:37:73:4c:91:6b:cc:10:
                    8e:58:f2:e2:1b:1b:1e:72:3e:c6:bb:a5:ca:08:d8:
                    bb:23:bb:bf:86:02:de:11:e9:d9:79:6d:60:a6:c6:
                    0c:2c:e3:35:72:f1:76:bf:b5
                Exponent: 65537 (0x10001)
        X509v3 extensions:
            X509v3 Subject Alternative Name: 
                DNS:lx2.meituan.net
    Signature Algorithm: sha256WithRSAEncryption
         2c:31:f4:6d:a0:78:f2:15:3e:b2:f9:c3:86:64:38:f0:43:d2:
         81:76:9d:21:97:46:26:cd:e5:0c:46:32:3c:9b:a2:43:7b:d5:
         df:81:27:b8:c7:e8:7c:e2:3d:a2:43:e3:98:23:ce:12:39:88:
         50:53:fa:6b:d3:c2:af:99:af:61:76:53:94:47:84:55:6c:f4:
         7b:4d:4a:45:eb:5f:24:02:4e:60:03:48:9e:2f:45:a0:fe:bb:
         91:eb:00:5a:3b:17:62:12:41:15:f6:bb:ec:d4:4f:1c:0c:50:
         e8:11:ad:33:39:80:bd:a6:c8:d8:02:7d:6d:ab:8c:87:37:96:
         a6:a9:81:7a:52:41:8a:45:8c:b3:6c:2b:93:d5:ba:5c:ad:d5:
         9d:f3:3c:48:d1:4b:17:e0:14:ea:80:3d:b2:af:d1:ad:89:8d:
         3a:6c:06:bc:69:29:dd:ef:f7:ce:67:13:3b:85:80:36:ea:4e:
         d0:08:bd:99:8b:fa:03:1a:88:4c:82:be:b9:67:9a:29:95:81:
         1b:46:c0:d3:29:dc:5c:ef:c5:7f:a9:ce:b4:4f:38:e7:6e:79:
         0c:0d:65:f1:0f:e3:75:c6:1a:d0:a9:cf:b2:e4:10:1b:08:6a:
         e6:88:32:39:bd:6e:71:0b:4b:47:9a:32:87:6b:2e:32:58:3a:
         35:9d:a2:ba
-----BEGIN CERTIFICATE-----
MIIDaTCCAlGgAwIBAgIBBjANBgkqhkiG9w0BAQsFADCBrTELMAkGA1UEBhMCVVMx
EzARBgNVBAgMCkNhbGlmb3JuaWExFDASBgNVBAcMC0xvcyBBbmdlbGVzMRUwEwYD
VQQKDAxEaWdpQ2VydCBJbmMxGTAXBgNVBAsMEHd3dy5kaWdpY2VydC5jb20xIDAe
BgNVBAMMF0RpZ2lDZXJ0IEdsb2JhbCBSb290IENBMR8wHQYJKoZIhvcNAQkBFhB3
d3cuZGlnaWNlcnQuY29tMB4XDTI0MDMyNjA5NTczNFoXDTM0MDMyNDA5NTczNFow
gaUxCzAJBgNVBAYTAlVTMRMwEQYDVQQIDApDYWxpZm9ybmlhMRQwEgYDVQQHDAtM
b3MgQW5nZWxlczEVMBMGA1UECgwMRGlnaUNlcnQgSW5jMRkwFwYDVQQLDBB3d3cu
ZGlnaWNlcnQuY29tMRgwFgYDVQQDDA9seDIubWVpdHVhbi5uZXQxHzAdBgkqhkiG
9w0BCQEWEHd3dy5kaWdpY2VydC5jb20wgZ8wDQYJKoZIhvcNAQEBBQADgY0AMIGJ
AoGBALqtTAkaPIVPYNWTvJ4S9JsW54vSKCmr+TiZ4YQ6G3BuoFut805lXBn7VokW
+2g2Qxo7tjJNY0OwxRBpPZYTf6rkdNSzYKqvW8dW9uFJVdmSunA3c0yRa8wQjljy
4hsbHnI+xrulygjYuyO7v4YC3hHp2XltYKbGDCzjNXLxdr+1AgMBAAGjHjAcMBoG
A1UdEQQTMBGCD2x4Mi5tZWl0dWFuLm5ldDANBgkqhkiG9w0BAQsFAAOCAQEALDH0
baB48hU+svnDhmQ48EPSgXadIZdGJs3lDEYyPJuiQ3vV34EnuMfofOI9okPjmCPO
EjmIUFP6a9PCr5mvYXZTlEeEVWz0e01KRetfJAJOYANIni9FoP67kesAWjsXYhJB
Ffa77NRPHAxQ6BGtMzmAvabI2AJ9bauMhzeWpqmBelJBikWMs2wrk9W6XK3VnfM8
SNFLF+AU6oA9sq/RrYmNOmwGvGkp3e/3zmcTO4WANupO0Ai9mYv6AxqITIK+uWea
KZWBG0bA0yncXO/Ff6nOtE845255DA1l8Q/jdcYa0KnPsuQQGwhq5ogyOb1ucQtL
R5oyh2suMlg6NZ2iug==
-----END CERTIFICATE-----
