Certificate:
    Data:
        Version: 3 (0x2)
        Serial Number: 12 (0xc)
        Signature Algorithm: sha256WithRSAEncryption
        Issuer: C=US, ST=California, L=Los Angeles, O=DigiCert Inc, OU=www.digicert.com, CN=DigiCert Global Root CA/emailAddress=www.digicert.com
        Validity
            Not Before: Mar 21 08:57:10 2024 GMT
            Not After : Mar 19 08:57:10 2034 GMT
        Subject: C=US, ST=California, L=Los Angeles, O=DigiCert Inc, OU=www.digicert.com, CN=message-api.ele.me/emailAddress=www.digicert.com
        Subject Public Key Info:
            Public Key Algorithm: rsaEncryption
                RSA Public-Key: (1024 bit)
                Modulus:
                    00:ba:ad:4c:09:1a:3c:85:4f:60:d5:93:bc:9e:12:
                    f4:9b:16:e7:8b:d2:28:29:ab:f9:38:99:e1:84:3a:
                    1b:70:6e:a0:5b:ad:f3:4e:65:5c:19:fb:56:89:16:
                    fb:68:36:43:1a:3b:b6:32:4d:63:43:b0:c5:10:69:
                    3d:96:13:7f:aa:e4:74:d4:b3:60:aa:af:5b:c7:56:
                    f6:e1:49:55:d9:92:ba:70:37:73:4c:91:6b:cc:10:
                    8e:58:f2:e2:1b:1b:1e:72:3e:c6:bb:a5:ca:08:d8:
                    bb:23:bb:bf:86:02:de:11:e9:d9:79:6d:60:a6:c6:
                    0c:2c:e3:35:72:f1:76:bf:b5
                Exponent: 65537 (0x10001)
        X509v3 extensions:
            X509v3 Subject Alternative Name: 
                DNS:message-api.ele.me
    Signature Algorithm: sha256WithRSAEncryption
         97:5c:bf:8e:63:f2:d3:bc:dc:b9:ad:e6:6b:4c:99:02:d4:ec:
         f2:2e:3d:56:99:e0:0c:42:56:f5:71:3b:e0:93:56:85:60:be:
         70:fb:ab:38:b2:3e:dc:7d:c9:02:79:18:d9:48:5c:6f:04:ce:
         2b:a2:d5:b3:0c:a9:b2:75:b2:5c:9e:97:63:b5:cb:d5:1b:d7:
         c1:26:c3:2d:32:6d:89:ab:7b:27:c6:1c:4b:69:6d:d2:4e:b4:
         eb:0d:c0:9f:68:a8:7d:77:e9:1c:44:03:8a:0c:64:36:4c:98:
         e9:26:ed:05:e4:0b:33:e5:ba:75:10:21:a2:c0:e8:c1:25:cb:
         05:af:d1:48:a8:6f:de:e3:95:dd:a7:d4:67:d8:b9:cc:d6:3f:
         0e:ec:f2:e8:8d:0f:fe:95:9e:2d:86:c3:d7:c4:28:84:11:7b:
         f0:93:5e:a2:13:70:34:c9:4a:2f:2f:be:e3:e3:9d:af:11:75:
         14:25:18:46:c5:3e:76:52:35:2f:80:f9:5f:e1:06:17:42:ee:
         70:35:91:ed:aa:6c:d9:31:d9:b2:1f:34:30:91:48:86:dd:33:
         b1:8c:34:fd:1d:67:39:bb:97:2e:a8:90:8f:11:ba:3c:35:d5:
         e5:c1:de:97:f9:03:e1:d5:d0:6b:ac:2a:e9:04:0d:0b:e7:1e:
         41:b1:02:fa
-----BEGIN CERTIFICATE-----
MIIDbzCCAlegAwIBAgIBDDANBgkqhkiG9w0BAQsFADCBrTELMAkGA1UEBhMCVVMx
EzARBgNVBAgMCkNhbGlmb3JuaWExFDASBgNVBAcMC0xvcyBBbmdlbGVzMRUwEwYD
VQQKDAxEaWdpQ2VydCBJbmMxGTAXBgNVBAsMEHd3dy5kaWdpY2VydC5jb20xIDAe
BgNVBAMMF0RpZ2lDZXJ0IEdsb2JhbCBSb290IENBMR8wHQYJKoZIhvcNAQkBFhB3
d3cuZGlnaWNlcnQuY29tMB4XDTI0MDMyMTA4NTcxMFoXDTM0MDMxOTA4NTcxMFow
gagxCzAJBgNVBAYTAlVTMRMwEQYDVQQIDApDYWxpZm9ybmlhMRQwEgYDVQQHDAtM
b3MgQW5nZWxlczEVMBMGA1UECgwMRGlnaUNlcnQgSW5jMRkwFwYDVQQLDBB3d3cu
ZGlnaWNlcnQuY29tMRswGQYDVQQDDBJtZXNzYWdlLWFwaS5lbGUubWUxHzAdBgkq
hkiG9w0BCQEWEHd3dy5kaWdpY2VydC5jb20wgZ8wDQYJKoZIhvcNAQEBBQADgY0A
MIGJAoGBALqtTAkaPIVPYNWTvJ4S9JsW54vSKCmr+TiZ4YQ6G3BuoFut805lXBn7
VokW+2g2Qxo7tjJNY0OwxRBpPZYTf6rkdNSzYKqvW8dW9uFJVdmSunA3c0yRa8wQ
jljy4hsbHnI+xrulygjYuyO7v4YC3hHp2XltYKbGDCzjNXLxdr+1AgMBAAGjITAf
MB0GA1UdEQQWMBSCEm1lc3NhZ2UtYXBpLmVsZS5tZTANBgkqhkiG9w0BAQsFAAOC
AQEAl1y/jmPy07zcua3ma0yZAtTs8i49VpngDEJW9XE74JNWhWC+cPurOLI+3H3J
AnkY2UhcbwTOK6LVswypsnWyXJ6XY7XL1RvXwSbDLTJtiat7J8YcS2lt0k606w3A
n2iofXfpHEQDigxkNkyY6SbtBeQLM+W6dRAhosDowSXLBa/RSKhv3uOV3afUZ9i5
zNY/Duzy6I0P/pWeLYbD18QohBF78JNeohNwNMlKLy++4+OdrxF1FCUYRsU+dlI1
L4D5X+EGF0LucDWR7aps2THZsh80MJFIht0zsYw0/R1nObuXLqiQjxG6PDXV5cHe
l/kD4dXQa6wq6QQNC+ceQbEC+g==
-----END CERTIFICATE-----
