Certificate:
    Data:
        Version: 3 (0x2)
        Serial Number: 6 (0x6)
        Signature Algorithm: sha256WithRSAEncryption
        Issuer: C=US, ST=California, L=Los Angeles, O=DigiCert Inc, OU=www.digicert.com, CN=DigiCert Global Root CA/emailAddress=www.digicert.com
        Validity
            Not Before: Mar 21 06:15:04 2024 GMT
            Not After : Mar 19 06:15:04 2034 GMT
        Subject: C=US, ST=California, L=Los Angeles, O=DigiCert Inc, OU=www.digicert.com, CN=message-api.ele.me/emailAddress=www.digicert.com
        Subject Public Key Info:
            Public Key Algorithm: rsaEncryption
                RSA Public-Key: (1024 bit)
                Modulus:
                    00:ba:ad:4c:09:1a:3c:85:4f:60:d5:93:bc:9e:12:
                    f4:9b:16:e7:8b:d2:28:29:ab:f9:38:99:e1:84:3a:
                    1b:70:6e:a0:5b:ad:f3:4e:65:5c:19:fb:56:89:16:
                    fb:68:36:43:1a:3b:b6:32:4d:63:43:b0:c5:10:69:
                    3d:96:13:7f:aa:e4:74:d4:b3:60:aa:af:5b:c7:56:
                    f6:e1:49:55:d9:92:ba:70:37:73:4c:91:6b:cc:10:
                    8e:58:f2:e2:1b:1b:1e:72:3e:c6:bb:a5:ca:08:d8:
                    bb:23:bb:bf:86:02:de:11:e9:d9:79:6d:60:a6:c6:
                    0c:2c:e3:35:72:f1:76:bf:b5
                Exponent: 65537 (0x10001)
        X509v3 extensions:
            X509v3 Subject Alternative Name: 
                DNS:message-api.ele.me
    Signature Algorithm: sha256WithRSAEncryption
         11:71:62:bc:a7:ce:77:e4:33:c1:71:8a:d7:9f:b1:7a:54:e5:
         7b:5e:59:af:9b:41:d4:c1:f0:97:ca:56:5a:02:ab:ee:b4:7c:
         53:44:7d:e0:63:38:aa:6e:69:bd:30:65:3e:8a:a0:10:a3:10:
         56:2d:1e:10:86:07:8a:3e:29:0e:ee:b6:93:59:16:cf:c8:b4:
         de:39:37:02:62:83:db:fa:7b:1c:c8:ab:00:16:6d:87:05:a0:
         7b:6d:f8:59:f2:d9:a7:09:3d:dd:9a:15:04:97:47:ba:e5:ab:
         63:5b:10:1a:c0:a1:81:ff:f1:58:b4:73:ee:54:9b:6b:83:85:
         c6:56:84:1d:ff:cc:91:ce:a1:29:df:ec:47:45:b8:15:a3:1d:
         ee:60:bc:6f:64:77:15:68:d1:0a:f4:dd:e7:88:b0:c9:16:96:
         8e:3a:84:cd:d9:63:1b:09:b2:2f:07:84:9a:51:bf:0d:cf:41:
         50:65:aa:3d:97:01:f3:d3:80:76:8d:93:20:40:76:a3:ad:2d:
         0d:99:03:87:c5:b4:be:f3:4a:17:61:a0:b0:cb:f8:0e:9f:49:
         a5:df:16:bd:f5:4c:17:7d:2e:ed:52:57:ec:dd:12:12:24:57:
         61:c8:d3:0b:c3:8d:07:6a:d9:5c:4f:f1:c9:a5:ab:7e:19:36:
         be:f4:3e:20
-----BEGIN CERTIFICATE-----
MIIDbzCCAlegAwIBAgIBBjANBgkqhkiG9w0BAQsFADCBrTELMAkGA1UEBhMCVVMx
EzARBgNVBAgMCkNhbGlmb3JuaWExFDASBgNVBAcMC0xvcyBBbmdlbGVzMRUwEwYD
VQQKDAxEaWdpQ2VydCBJbmMxGTAXBgNVBAsMEHd3dy5kaWdpY2VydC5jb20xIDAe
BgNVBAMMF0RpZ2lDZXJ0IEdsb2JhbCBSb290IENBMR8wHQYJKoZIhvcNAQkBFhB3
d3cuZGlnaWNlcnQuY29tMB4XDTI0MDMyMTA2MTUwNFoXDTM0MDMxOTA2MTUwNFow
gagxCzAJBgNVBAYTAlVTMRMwEQYDVQQIDApDYWxpZm9ybmlhMRQwEgYDVQQHDAtM
b3MgQW5nZWxlczEVMBMGA1UECgwMRGlnaUNlcnQgSW5jMRkwFwYDVQQLDBB3d3cu
ZGlnaWNlcnQuY29tMRswGQYDVQQDDBJtZXNzYWdlLWFwaS5lbGUubWUxHzAdBgkq
hkiG9w0BCQEWEHd3dy5kaWdpY2VydC5jb20wgZ8wDQYJKoZIhvcNAQEBBQADgY0A
MIGJAoGBALqtTAkaPIVPYNWTvJ4S9JsW54vSKCmr+TiZ4YQ6G3BuoFut805lXBn7
VokW+2g2Qxo7tjJNY0OwxRBpPZYTf6rkdNSzYKqvW8dW9uFJVdmSunA3c0yRa8wQ
jljy4hsbHnI+xrulygjYuyO7v4YC3hHp2XltYKbGDCzjNXLxdr+1AgMBAAGjITAf
MB0GA1UdEQQWMBSCEm1lc3NhZ2UtYXBpLmVsZS5tZTANBgkqhkiG9w0BAQsFAAOC
AQEAEXFivKfOd+QzwXGK15+xelTle15Zr5tB1MHwl8pWWgKr7rR8U0R94GM4qm5p
vTBlPoqgEKMQVi0eEIYHij4pDu62k1kWz8i03jk3AmKD2/p7HMirABZthwWge234
WfLZpwk93ZoVBJdHuuWrY1sQGsChgf/xWLRz7lSba4OFxlaEHf/Mkc6hKd/sR0W4
FaMd7mC8b2R3FWjRCvTd54iwyRaWjjqEzdljGwmyLweEmlG/Dc9BUGWqPZcB89OA
do2TIEB2o60tDZkDh8W0vvNKF2GgsMv4Dp9Jpd8WvfVMF30u7VJX7N0SEiRXYcjT
C8ONB2rZXE/xyaWrfhk2vvQ+IA==
-----END CERTIFICATE-----
