Certificate:
    Data:
        Version: 3 (0x2)
        Serial Number: 4 (0x4)
        Signature Algorithm: sha256WithRSAEncryption
        Issuer: C=US, ST=California, L=Los Angeles, O=DigiCert Inc, OU=www.digicert.com, CN=DigiCert Global Root CA/emailAddress=www.digicert.com
        Validity
            Not Before: Mar 21 08:56:50 2024 GMT
            Not After : Mar 19 08:56:50 2034 GMT
        Subject: C=US, ST=California, L=Los Angeles, O=DigiCert Inc, OU=www.digicert.com, CN=napos-ugc-mobile-web.faas.ele.me/emailAddress=www.digicert.com
        Subject Public Key Info:
            Public Key Algorithm: rsaEncryption
                RSA Public-Key: (1024 bit)
                Modulus:
                    00:ba:ad:4c:09:1a:3c:85:4f:60:d5:93:bc:9e:12:
                    f4:9b:16:e7:8b:d2:28:29:ab:f9:38:99:e1:84:3a:
                    1b:70:6e:a0:5b:ad:f3:4e:65:5c:19:fb:56:89:16:
                    fb:68:36:43:1a:3b:b6:32:4d:63:43:b0:c5:10:69:
                    3d:96:13:7f:aa:e4:74:d4:b3:60:aa:af:5b:c7:56:
                    f6:e1:49:55:d9:92:ba:70:37:73:4c:91:6b:cc:10:
                    8e:58:f2:e2:1b:1b:1e:72:3e:c6:bb:a5:ca:08:d8:
                    bb:23:bb:bf:86:02:de:11:e9:d9:79:6d:60:a6:c6:
                    0c:2c:e3:35:72:f1:76:bf:b5
                Exponent: 65537 (0x10001)
        X509v3 extensions:
            X509v3 Subject Alternative Name: 
                DNS:napos-ugc-mobile-web.faas.ele.me
    Signature Algorithm: sha256WithRSAEncryption
         4f:f5:9f:bc:6c:50:dc:b3:53:f0:d9:8d:4d:c5:a0:35:04:17:
         09:ae:0d:5c:63:fe:27:12:44:f6:88:20:cd:8e:64:96:94:59:
         9e:4c:4c:f1:9a:d3:a1:c7:b5:57:72:f8:60:c0:68:69:24:20:
         26:e1:43:a9:da:7d:ab:75:a8:24:34:38:c9:f5:b2:ff:f5:60:
         0d:43:9a:e7:99:31:2c:d6:6a:74:fd:c1:33:c1:37:5f:a5:a3:
         09:6d:6c:ab:6e:e8:9b:13:71:91:eb:83:30:21:0b:0e:94:67:
         58:07:d7:8f:a0:ab:41:72:71:32:78:3d:59:76:c1:58:94:b4:
         84:49:1e:8e:34:53:f5:c3:52:16:c3:7f:d1:2c:07:96:d6:ea:
         1f:68:72:a4:73:94:a6:78:88:ed:db:d6:14:75:11:de:63:31:
         4a:bb:ca:f0:bf:3a:a9:08:1f:66:8c:0a:d6:4a:eb:40:1b:ab:
         6e:b8:4c:50:89:24:73:08:e0:55:04:89:8f:71:7f:42:12:62:
         ec:3a:2f:da:58:c8:d4:37:52:50:1a:e3:d9:cc:25:60:6f:f5:
         6f:3c:68:79:d4:db:30:43:4f:2b:4c:c6:b8:47:f1:89:a4:88:
         3a:75:fc:99:f2:0b:a3:01:53:95:04:0c:4c:de:33:1f:08:6f:
         19:0c:1c:2a
-----BEGIN CERTIFICATE-----
MIIDizCCAnOgAwIBAgIBBDANBgkqhkiG9w0BAQsFADCBrTELMAkGA1UEBhMCVVMx
EzARBgNVBAgMCkNhbGlmb3JuaWExFDASBgNVBAcMC0xvcyBBbmdlbGVzMRUwEwYD
VQQKDAxEaWdpQ2VydCBJbmMxGTAXBgNVBAsMEHd3dy5kaWdpY2VydC5jb20xIDAe
BgNVBAMMF0RpZ2lDZXJ0IEdsb2JhbCBSb290IENBMR8wHQYJKoZIhvcNAQkBFhB3
d3cuZGlnaWNlcnQuY29tMB4XDTI0MDMyMTA4NTY1MFoXDTM0MDMxOTA4NTY1MFow
gbYxCzAJBgNVBAYTAlVTMRMwEQYDVQQIDApDYWxpZm9ybmlhMRQwEgYDVQQHDAtM
b3MgQW5nZWxlczEVMBMGA1UECgwMRGlnaUNlcnQgSW5jMRkwFwYDVQQLDBB3d3cu
ZGlnaWNlcnQuY29tMSkwJwYDVQQDDCBuYXBvcy11Z2MtbW9iaWxlLXdlYi5mYWFz
LmVsZS5tZTEfMB0GCSqGSIb3DQEJARYQd3d3LmRpZ2ljZXJ0LmNvbTCBnzANBgkq
hkiG9w0BAQEFAAOBjQAwgYkCgYEAuq1MCRo8hU9g1ZO8nhL0mxbni9IoKav5OJnh
hDobcG6gW63zTmVcGftWiRb7aDZDGju2Mk1jQ7DFEGk9lhN/quR01LNgqq9bx1b2
4UlV2ZK6cDdzTJFrzBCOWPLiGxsecj7Gu6XKCNi7I7u/hgLeEenZeW1gpsYMLOM1
cvF2v7UCAwEAAaMvMC0wKwYDVR0RBCQwIoIgbmFwb3MtdWdjLW1vYmlsZS13ZWIu
ZmFhcy5lbGUubWUwDQYJKoZIhvcNAQELBQADggEBAE/1n7xsUNyzU/DZjU3FoDUE
FwmuDVxj/icSRPaIIM2OZJaUWZ5MTPGa06HHtVdy+GDAaGkkICbhQ6nafat1qCQ0
OMn1sv/1YA1DmueZMSzWanT9wTPBN1+lowltbKtu6JsTcZHrgzAhCw6UZ1gH14+g
q0FycTJ4PVl2wViUtIRJHo40U/XDUhbDf9EsB5bW6h9ocqRzlKZ4iO3b1hR1Ed5j
MUq7yvC/OqkIH2aMCtZK60Abq264TFCJJHMI4FUEiY9xf0ISYuw6L9pYyNQ3UlAa
49nMJWBv9W88aHnU2zBDTytMxrhH8YmkiDp1/JnyC6MBU5UEDEzeMx8IbxkMHCo=
-----END CERTIFICATE-----
