Certificate:
    Data:
        Version: 3 (0x2)
        Serial Number: 10 (0xa)
        Signature Algorithm: sha256WithRSAEncryption
        Issuer: C=US, ST=California, L=Los Angeles, O=DigiCert Inc, OU=www.digicert.com, CN=DigiCert Global Root CA/emailAddress=www.digicert.com
        Validity
            Not Before: Mar 21 08:56:57 2024 GMT
            Not After : Mar 19 08:56:57 2034 GMT
        Subject: C=US, ST=California, L=Los Angeles, O=DigiCert Inc, OU=www.digicert.com, CN=nt2.ele.me/emailAddress=www.digicert.com
        Subject Public Key Info:
            Public Key Algorithm: rsaEncryption
                RSA Public-Key: (1024 bit)
                Modulus:
                    00:ba:ad:4c:09:1a:3c:85:4f:60:d5:93:bc:9e:12:
                    f4:9b:16:e7:8b:d2:28:29:ab:f9:38:99:e1:84:3a:
                    1b:70:6e:a0:5b:ad:f3:4e:65:5c:19:fb:56:89:16:
                    fb:68:36:43:1a:3b:b6:32:4d:63:43:b0:c5:10:69:
                    3d:96:13:7f:aa:e4:74:d4:b3:60:aa:af:5b:c7:56:
                    f6:e1:49:55:d9:92:ba:70:37:73:4c:91:6b:cc:10:
                    8e:58:f2:e2:1b:1b:1e:72:3e:c6:bb:a5:ca:08:d8:
                    bb:23:bb:bf:86:02:de:11:e9:d9:79:6d:60:a6:c6:
                    0c:2c:e3:35:72:f1:76:bf:b5
                Exponent: 65537 (0x10001)
        X509v3 extensions:
            X509v3 Subject Alternative Name: 
                DNS:nt2.ele.me
    Signature Algorithm: sha256WithRSAEncryption
         b1:4a:c5:97:c9:9c:18:50:f2:1b:a8:3f:2e:45:d9:97:33:f1:
         f4:b4:bc:b1:5f:0c:a4:59:f5:17:a0:d2:31:65:a9:2e:ce:06:
         4f:9e:4d:61:ef:d2:d7:26:cb:55:28:cf:7b:a4:ab:aa:db:a2:
         ef:a7:a5:9d:2c:a5:c9:3b:aa:05:29:93:25:a3:2d:ca:6d:3a:
         90:a1:02:7e:72:62:39:ed:8a:c7:94:f0:d1:1f:75:a5:e8:4c:
         e7:93:60:f2:fc:a4:1d:ff:4f:46:98:a7:d1:72:12:ef:2d:3e:
         df:f7:b9:99:a4:02:44:99:37:75:8f:81:83:64:85:29:42:c0:
         95:26:e7:b9:78:c8:2c:35:c0:43:77:4c:ef:43:12:05:ce:72:
         75:84:af:30:19:95:ac:39:55:52:a3:66:db:b7:14:50:c7:da:
         af:97:c7:42:4d:40:37:88:d8:45:d1:57:8c:ac:1e:5e:dc:f4:
         a6:c7:a6:c1:4d:8d:91:12:a2:f0:57:fb:d4:55:bb:ce:06:fa:
         69:cf:f5:6d:57:8f:88:43:ff:33:04:42:c9:ac:96:17:d3:f0:
         e4:ac:b1:58:d3:2c:04:b4:15:68:e6:47:6a:a2:86:56:c9:4a:
         5f:2d:27:7d:bd:a7:a6:65:6f:b8:8f:fa:dc:fd:93:7d:28:cd:
         3f:3f:d9:60
-----BEGIN CERTIFICATE-----
MIIDXzCCAkegAwIBAgIBCjANBgkqhkiG9w0BAQsFADCBrTELMAkGA1UEBhMCVVMx
EzARBgNVBAgMCkNhbGlmb3JuaWExFDASBgNVBAcMC0xvcyBBbmdlbGVzMRUwEwYD
VQQKDAxEaWdpQ2VydCBJbmMxGTAXBgNVBAsMEHd3dy5kaWdpY2VydC5jb20xIDAe
BgNVBAMMF0RpZ2lDZXJ0IEdsb2JhbCBSb290IENBMR8wHQYJKoZIhvcNAQkBFhB3
d3cuZGlnaWNlcnQuY29tMB4XDTI0MDMyMTA4NTY1N1oXDTM0MDMxOTA4NTY1N1ow
gaAxCzAJBgNVBAYTAlVTMRMwEQYDVQQIDApDYWxpZm9ybmlhMRQwEgYDVQQHDAtM
b3MgQW5nZWxlczEVMBMGA1UECgwMRGlnaUNlcnQgSW5jMRkwFwYDVQQLDBB3d3cu
ZGlnaWNlcnQuY29tMRMwEQYDVQQDDApudDIuZWxlLm1lMR8wHQYJKoZIhvcNAQkB
FhB3d3cuZGlnaWNlcnQuY29tMIGfMA0GCSqGSIb3DQEBAQUAA4GNADCBiQKBgQC6
rUwJGjyFT2DVk7yeEvSbFueL0igpq/k4meGEOhtwbqBbrfNOZVwZ+1aJFvtoNkMa
O7YyTWNDsMUQaT2WE3+q5HTUs2Cqr1vHVvbhSVXZkrpwN3NMkWvMEI5Y8uIbGx5y
Psa7pcoI2Lsju7+GAt4R6dl5bWCmxgws4zVy8Xa/tQIDAQABoxkwFzAVBgNVHREE
DjAMggpudDIuZWxlLm1lMA0GCSqGSIb3DQEBCwUAA4IBAQCxSsWXyZwYUPIbqD8u
RdmXM/H0tLyxXwykWfUXoNIxZakuzgZPnk1h79LXJstVKM97pKuq26Lvp6WdLKXJ
O6oFKZMloy3KbTqQoQJ+cmI57YrHlPDRH3Wl6Eznk2Dy/KQd/09GmKfRchLvLT7f
97mZpAJEmTd1j4GDZIUpQsCVJue5eMgsNcBDd0zvQxIFznJ1hK8wGZWsOVVSo2bb
txRQx9qvl8dCTUA3iNhF0VeMrB5e3PSmx6bBTY2REqLwV/vUVbvOBvppz/VtV4+I
Q/8zBELJrJYX0/DkrLFY0ywEtBVo5kdqooZWyUpfLSd9vaemZW+4j/rc/ZN9KM0/
P9lg
-----END CERTIFICATE-----
