Certificate:
    Data:
        Version: 3 (0x2)
        Serial Number: 3 (0x3)
        Signature Algorithm: sha256WithRSAEncryption
        Issuer: C=US, ST=California, L=Los Angeles, O=DigiCert Inc, OU=www.digicert.com, CN=DigiCert Global Root CA/emailAddress=www.digicert.com
        Validity
            Not Before: Mar 21 06:15:03 2024 GMT
            Not After : Mar 19 06:15:03 2034 GMT
        Subject: C=US, ST=California, L=Los Angeles, O=DigiCert Inc, OU=www.digicert.com, CN=orange-dc.alibaba.com/emailAddress=www.digicert.com
        Subject Public Key Info:
            Public Key Algorithm: rsaEncryption
                RSA Public-Key: (1024 bit)
                Modulus:
                    00:ba:ad:4c:09:1a:3c:85:4f:60:d5:93:bc:9e:12:
                    f4:9b:16:e7:8b:d2:28:29:ab:f9:38:99:e1:84:3a:
                    1b:70:6e:a0:5b:ad:f3:4e:65:5c:19:fb:56:89:16:
                    fb:68:36:43:1a:3b:b6:32:4d:63:43:b0:c5:10:69:
                    3d:96:13:7f:aa:e4:74:d4:b3:60:aa:af:5b:c7:56:
                    f6:e1:49:55:d9:92:ba:70:37:73:4c:91:6b:cc:10:
                    8e:58:f2:e2:1b:1b:1e:72:3e:c6:bb:a5:ca:08:d8:
                    bb:23:bb:bf:86:02:de:11:e9:d9:79:6d:60:a6:c6:
                    0c:2c:e3:35:72:f1:76:bf:b5
                Exponent: 65537 (0x10001)
        X509v3 extensions:
            X509v3 Subject Alternative Name: 
                DNS:orange-dc.alibaba.com
    Signature Algorithm: sha256WithRSAEncryption
         11:39:a1:b1:3b:28:ea:9e:38:db:a3:3c:07:31:f6:a3:52:bd:
         ac:5c:bf:73:c6:29:ed:85:98:60:db:11:84:95:18:68:87:f3:
         2d:f8:56:d1:ef:c6:c9:7f:8b:77:4c:b7:8b:58:d6:3f:c9:6d:
         fd:b5:1d:b9:69:3c:25:a5:2c:aa:36:07:c6:11:d8:d6:b3:13:
         04:b8:fa:d5:50:54:a8:6f:be:ea:7b:cf:b3:ed:31:92:93:7b:
         92:c0:4f:68:7c:ce:9a:44:23:55:a1:26:24:89:6c:d8:5e:4a:
         dd:3f:1a:74:b2:03:41:26:4a:29:38:7a:e1:27:42:40:66:c2:
         d9:c0:a0:4d:05:53:28:9a:6d:a9:53:13:8a:3d:93:12:50:25:
         b2:1e:83:19:48:44:e8:c8:44:82:9f:b6:04:0f:5d:fd:46:27:
         32:7a:9f:ce:de:75:77:cf:1e:a1:97:80:d0:3b:b9:92:3d:fb:
         97:e4:d6:54:fc:d7:4d:20:de:ec:db:e9:ac:4b:91:0e:a1:38:
         d1:32:d8:fa:de:12:66:c1:65:fe:24:0a:79:93:9d:aa:a4:a7:
         11:0b:8b:55:ec:31:c2:2f:28:20:a8:4c:05:6e:58:62:f5:76:
         b1:96:21:4c:e7:dd:f0:3e:62:88:1c:90:7c:ce:94:08:cb:94:
         b0:a8:cf:c6
-----BEGIN CERTIFICATE-----
MIIDdTCCAl2gAwIBAgIBAzANBgkqhkiG9w0BAQsFADCBrTELMAkGA1UEBhMCVVMx
EzARBgNVBAgMCkNhbGlmb3JuaWExFDASBgNVBAcMC0xvcyBBbmdlbGVzMRUwEwYD
VQQKDAxEaWdpQ2VydCBJbmMxGTAXBgNVBAsMEHd3dy5kaWdpY2VydC5jb20xIDAe
BgNVBAMMF0RpZ2lDZXJ0IEdsb2JhbCBSb290IENBMR8wHQYJKoZIhvcNAQkBFhB3
d3cuZGlnaWNlcnQuY29tMB4XDTI0MDMyMTA2MTUwM1oXDTM0MDMxOTA2MTUwM1ow
gasxCzAJBgNVBAYTAlVTMRMwEQYDVQQIDApDYWxpZm9ybmlhMRQwEgYDVQQHDAtM
b3MgQW5nZWxlczEVMBMGA1UECgwMRGlnaUNlcnQgSW5jMRkwFwYDVQQLDBB3d3cu
ZGlnaWNlcnQuY29tMR4wHAYDVQQDDBVvcmFuZ2UtZGMuYWxpYmFiYS5jb20xHzAd
BgkqhkiG9w0BCQEWEHd3dy5kaWdpY2VydC5jb20wgZ8wDQYJKoZIhvcNAQEBBQAD
gY0AMIGJAoGBALqtTAkaPIVPYNWTvJ4S9JsW54vSKCmr+TiZ4YQ6G3BuoFut805l
XBn7VokW+2g2Qxo7tjJNY0OwxRBpPZYTf6rkdNSzYKqvW8dW9uFJVdmSunA3c0yR
a8wQjljy4hsbHnI+xrulygjYuyO7v4YC3hHp2XltYKbGDCzjNXLxdr+1AgMBAAGj
JDAiMCAGA1UdEQQZMBeCFW9yYW5nZS1kYy5hbGliYWJhLmNvbTANBgkqhkiG9w0B
AQsFAAOCAQEAETmhsTso6p4426M8BzH2o1K9rFy/c8Yp7YWYYNsRhJUYaIfzLfhW
0e/GyX+Ld0y3i1jWP8lt/bUduWk8JaUsqjYHxhHY1rMTBLj61VBUqG++6nvPs+0x
kpN7ksBPaHzOmkQjVaEmJIls2F5K3T8adLIDQSZKKTh64SdCQGbC2cCgTQVTKJpt
qVMTij2TElAlsh6DGUhE6MhEgp+2BA9d/UYnMnqfzt51d88eoZeA0Du5kj37l+TW
VPzXTSDe7NvprEuRDqE40TLY+t4SZsFl/iQKeZOdqqSnEQuLVewxwi8oIKhMBW5Y
YvV2sZYhTOfd8D5iiByQfM6UCMuUsKjPxg==
-----END CERTIFICATE-----
