Certificate:
    Data:
        Version: 3 (0x2)
        Serial Number: 67 (0x43)
        Signature Algorithm: sha256WithRSAEncryption
        Issuer: C=US, ST=California, L=Los Angeles, O=DigiCert Inc, OU=www.digicert.com, CN=DigiCert Global Root CA/emailAddress=www.digicert.com
        Validity
            Not Before: Mar 21 09:09:07 2024 GMT
            Not After : Mar 19 09:09:07 2034 GMT
        Subject: C=US, ST=California, L=Los Angeles, O=DigiCert Inc, OU=www.digicert.com, CN=passport.baidu.com/emailAddress=www.digicert.com
        Subject Public Key Info:
            Public Key Algorithm: rsaEncryption
                RSA Public-Key: (1024 bit)
                Modulus:
                    00:ba:ad:4c:09:1a:3c:85:4f:60:d5:93:bc:9e:12:
                    f4:9b:16:e7:8b:d2:28:29:ab:f9:38:99:e1:84:3a:
                    1b:70:6e:a0:5b:ad:f3:4e:65:5c:19:fb:56:89:16:
                    fb:68:36:43:1a:3b:b6:32:4d:63:43:b0:c5:10:69:
                    3d:96:13:7f:aa:e4:74:d4:b3:60:aa:af:5b:c7:56:
                    f6:e1:49:55:d9:92:ba:70:37:73:4c:91:6b:cc:10:
                    8e:58:f2:e2:1b:1b:1e:72:3e:c6:bb:a5:ca:08:d8:
                    bb:23:bb:bf:86:02:de:11:e9:d9:79:6d:60:a6:c6:
                    0c:2c:e3:35:72:f1:76:bf:b5
                Exponent: 65537 (0x10001)
        X509v3 extensions:
            X509v3 Subject Alternative Name: 
                DNS:passport.baidu.com
    Signature Algorithm: sha256WithRSAEncryption
         27:6d:07:fd:b0:1a:03:10:5a:fd:28:6e:bf:92:3a:d7:9c:cf:
         72:8f:8b:28:90:84:0f:2f:0b:30:84:2f:6b:a6:d9:7f:34:7d:
         4c:a9:f7:b6:d9:be:9c:be:71:83:be:af:2a:a1:bd:fb:cc:5d:
         94:5f:2b:6d:59:f5:f5:20:97:ce:60:11:06:7a:4e:c1:86:c7:
         c3:dc:7b:79:aa:81:9f:aa:ee:7c:a7:1e:93:72:54:dc:98:ce:
         51:84:6e:08:22:6c:e3:2b:73:1b:7d:1b:34:c7:ed:5c:59:eb:
         91:f5:fa:3e:56:4f:2e:30:6b:21:ec:54:75:d3:6b:c5:67:b1:
         60:60:c7:07:60:98:80:16:25:a1:44:99:0d:cf:97:3d:2d:9c:
         c6:11:66:ca:a0:87:51:33:93:e4:31:87:27:7a:77:17:dc:55:
         79:06:25:fe:7b:dd:4d:5d:69:f7:67:ea:32:ff:46:32:dd:7c:
         01:5c:ab:d3:0d:3f:ae:81:53:7e:eb:99:42:af:ad:65:ab:1b:
         88:8b:2b:e7:6f:d9:55:3e:79:a5:09:aa:48:dc:4f:34:f8:e1:
         4f:22:0c:86:6e:cf:67:65:df:e5:f5:c6:fc:61:ee:48:b6:6f:
         00:39:1b:8a:de:96:a7:af:10:30:90:54:bd:1d:54:db:ef:58:
         d7:6f:14:81
-----BEGIN CERTIFICATE-----
MIIDbzCCAlegAwIBAgIBQzANBgkqhkiG9w0BAQsFADCBrTELMAkGA1UEBhMCVVMx
EzARBgNVBAgMCkNhbGlmb3JuaWExFDASBgNVBAcMC0xvcyBBbmdlbGVzMRUwEwYD
VQQKDAxEaWdpQ2VydCBJbmMxGTAXBgNVBAsMEHd3dy5kaWdpY2VydC5jb20xIDAe
BgNVBAMMF0RpZ2lDZXJ0IEdsb2JhbCBSb290IENBMR8wHQYJKoZIhvcNAQkBFhB3
d3cuZGlnaWNlcnQuY29tMB4XDTI0MDMyMTA5MDkwN1oXDTM0MDMxOTA5MDkwN1ow
gagxCzAJBgNVBAYTAlVTMRMwEQYDVQQIDApDYWxpZm9ybmlhMRQwEgYDVQQHDAtM
b3MgQW5nZWxlczEVMBMGA1UECgwMRGlnaUNlcnQgSW5jMRkwFwYDVQQLDBB3d3cu
ZGlnaWNlcnQuY29tMRswGQYDVQQDDBJwYXNzcG9ydC5iYWlkdS5jb20xHzAdBgkq
hkiG9w0BCQEWEHd3dy5kaWdpY2VydC5jb20wgZ8wDQYJKoZIhvcNAQEBBQADgY0A
MIGJAoGBALqtTAkaPIVPYNWTvJ4S9JsW54vSKCmr+TiZ4YQ6G3BuoFut805lXBn7
VokW+2g2Qxo7tjJNY0OwxRBpPZYTf6rkdNSzYKqvW8dW9uFJVdmSunA3c0yRa8wQ
jljy4hsbHnI+xrulygjYuyO7v4YC3hHp2XltYKbGDCzjNXLxdr+1AgMBAAGjITAf
MB0GA1UdEQQWMBSCEnBhc3Nwb3J0LmJhaWR1LmNvbTANBgkqhkiG9w0BAQsFAAOC
AQEAJ20H/bAaAxBa/Shuv5I615zPco+LKJCEDy8LMIQva6bZfzR9TKn3ttm+nL5x
g76vKqG9+8xdlF8rbVn19SCXzmARBnpOwYbHw9x7eaqBn6rufKcek3JU3JjOUYRu
CCJs4ytzG30bNMftXFnrkfX6PlZPLjBrIexUddNrxWexYGDHB2CYgBYloUSZDc+X
PS2cxhFmyqCHUTOT5DGHJ3p3F9xVeQYl/nvdTV1p92fqMv9GMt18AVyr0w0/roFT
fuuZQq+tZasbiIsr52/ZVT55pQmqSNxPNPjhTyIMhm7PZ2Xf5fXG/GHuSLZvADkb
it6Wp68QMJBUvR1U2+9Y128UgQ==
-----END CERTIFICATE-----
