Certificate:
    Data:
        Version: 3 (0x2)
        Serial Number: 61 (0x3d)
        Signature Algorithm: sha256WithRSAEncryption
        Issuer: C=US, ST=California, L=Los Angeles, O=DigiCert Inc, OU=www.digicert.com, CN=DigiCert Global Root CA/emailAddress=www.digicert.com
        Validity
            Not Before: Mar 21 09:08:23 2024 GMT
            Not After : Mar 19 09:08:23 2034 GMT
        Subject: C=US, ST=California, L=Los Angeles, O=DigiCert Inc, OU=www.digicert.com, CN=pic1.zhimg.com/emailAddress=www.digicert.com
        Subject Public Key Info:
            Public Key Algorithm: rsaEncryption
                RSA Public-Key: (1024 bit)
                Modulus:
                    00:ba:ad:4c:09:1a:3c:85:4f:60:d5:93:bc:9e:12:
                    f4:9b:16:e7:8b:d2:28:29:ab:f9:38:99:e1:84:3a:
                    1b:70:6e:a0:5b:ad:f3:4e:65:5c:19:fb:56:89:16:
                    fb:68:36:43:1a:3b:b6:32:4d:63:43:b0:c5:10:69:
                    3d:96:13:7f:aa:e4:74:d4:b3:60:aa:af:5b:c7:56:
                    f6:e1:49:55:d9:92:ba:70:37:73:4c:91:6b:cc:10:
                    8e:58:f2:e2:1b:1b:1e:72:3e:c6:bb:a5:ca:08:d8:
                    bb:23:bb:bf:86:02:de:11:e9:d9:79:6d:60:a6:c6:
                    0c:2c:e3:35:72:f1:76:bf:b5
                Exponent: 65537 (0x10001)
        X509v3 extensions:
            X509v3 Subject Alternative Name: 
                DNS:pic1.zhimg.com
    Signature Algorithm: sha256WithRSAEncryption
         4d:64:f0:2f:c4:c7:8f:92:34:80:b9:75:54:b5:c0:81:da:cc:
         c1:42:1d:06:a0:e5:1c:b6:14:89:62:fb:d1:d7:a2:ba:b0:27:
         a4:2d:47:41:76:61:7a:4e:96:06:fe:8c:bc:78:21:32:0b:f6:
         10:4b:b4:aa:87:1a:1e:32:41:e2:e2:ef:08:85:6e:ec:85:71:
         99:a5:02:48:68:24:ce:6d:b9:61:0c:9c:d4:e6:c8:c2:f3:5a:
         25:1d:98:d3:24:fd:18:4f:d6:3f:c6:3f:fe:8e:fe:65:6d:73:
         ee:66:35:6f:ee:28:9c:fd:70:88:52:e3:24:ae:44:b6:7c:81:
         ed:0d:d2:d4:67:89:2d:83:f5:94:1b:c7:e0:e1:95:08:83:a2:
         11:f9:cb:30:4c:4e:a8:7b:18:0c:8f:95:f8:ac:98:c7:4b:83:
         03:ce:f3:6f:16:17:1b:bd:c9:63:9c:c5:7e:96:bf:02:00:24:
         4e:f7:05:db:c4:5e:2f:f5:94:1a:88:62:36:51:22:f6:6a:76:
         8b:f0:51:dd:49:f5:20:c6:fd:70:9b:3a:8b:64:81:6f:41:4a:
         45:76:7e:cd:af:7a:68:e3:27:f0:65:bf:53:2b:0c:55:91:0f:
         5a:ca:1c:ba:bc:31:02:47:20:5f:6e:e2:ba:3e:48:c7:c8:0e:
         f0:08:02:39
-----BEGIN CERTIFICATE-----
MIIDZzCCAk+gAwIBAgIBPTANBgkqhkiG9w0BAQsFADCBrTELMAkGA1UEBhMCVVMx
EzARBgNVBAgMCkNhbGlmb3JuaWExFDASBgNVBAcMC0xvcyBBbmdlbGVzMRUwEwYD
VQQKDAxEaWdpQ2VydCBJbmMxGTAXBgNVBAsMEHd3dy5kaWdpY2VydC5jb20xIDAe
BgNVBAMMF0RpZ2lDZXJ0IEdsb2JhbCBSb290IENBMR8wHQYJKoZIhvcNAQkBFhB3
d3cuZGlnaWNlcnQuY29tMB4XDTI0MDMyMTA5MDgyM1oXDTM0MDMxOTA5MDgyM1ow
gaQxCzAJBgNVBAYTAlVTMRMwEQYDVQQIDApDYWxpZm9ybmlhMRQwEgYDVQQHDAtM
b3MgQW5nZWxlczEVMBMGA1UECgwMRGlnaUNlcnQgSW5jMRkwFwYDVQQLDBB3d3cu
ZGlnaWNlcnQuY29tMRcwFQYDVQQDDA5waWMxLnpoaW1nLmNvbTEfMB0GCSqGSIb3
DQEJARYQd3d3LmRpZ2ljZXJ0LmNvbTCBnzANBgkqhkiG9w0BAQEFAAOBjQAwgYkC
gYEAuq1MCRo8hU9g1ZO8nhL0mxbni9IoKav5OJnhhDobcG6gW63zTmVcGftWiRb7
aDZDGju2Mk1jQ7DFEGk9lhN/quR01LNgqq9bx1b24UlV2ZK6cDdzTJFrzBCOWPLi
Gxsecj7Gu6XKCNi7I7u/hgLeEenZeW1gpsYMLOM1cvF2v7UCAwEAAaMdMBswGQYD
VR0RBBIwEIIOcGljMS56aGltZy5jb20wDQYJKoZIhvcNAQELBQADggEBAE1k8C/E
x4+SNIC5dVS1wIHazMFCHQag5Ry2FIli+9HXorqwJ6QtR0F2YXpOlgb+jLx4ITIL
9hBLtKqHGh4yQeLi7wiFbuyFcZmlAkhoJM5tuWEMnNTmyMLzWiUdmNMk/RhP1j/G
P/6O/mVtc+5mNW/uKJz9cIhS4ySuRLZ8ge0N0tRniS2D9ZQbx+DhlQiDohH5yzBM
Tqh7GAyPlfismMdLgwPO828WFxu9yWOcxX6WvwIAJE73BdvEXi/1lBqIYjZRIvZq
dovwUd1J9SDG/XCbOotkgW9BSkV2fs2vemjjJ/Blv1MrDFWRD1rKHLq8MQJHIF9u
4ro+SMfIDvAIAjk=
-----END CERTIFICATE-----
