Certificate:
    Data:
        Version: 3 (0x2)
        Serial Number: 58 (0x3a)
        Signature Algorithm: sha256WithRSAEncryption
        Issuer: C=US, ST=California, L=Los Angeles, O=DigiCert Inc, OU=www.digicert.com, CN=DigiCert Global Root CA/emailAddress=www.digicert.com
        Validity
            Not Before: Mar 21 09:08:22 2024 GMT
            Not After : Mar 19 09:08:22 2034 GMT
        Subject: C=US, ST=California, L=Los Angeles, O=DigiCert Inc, OU=www.digicert.com, CN=pic2.zhimg.com/emailAddress=www.digicert.com
        Subject Public Key Info:
            Public Key Algorithm: rsaEncryption
                RSA Public-Key: (1024 bit)
                Modulus:
                    00:ba:ad:4c:09:1a:3c:85:4f:60:d5:93:bc:9e:12:
                    f4:9b:16:e7:8b:d2:28:29:ab:f9:38:99:e1:84:3a:
                    1b:70:6e:a0:5b:ad:f3:4e:65:5c:19:fb:56:89:16:
                    fb:68:36:43:1a:3b:b6:32:4d:63:43:b0:c5:10:69:
                    3d:96:13:7f:aa:e4:74:d4:b3:60:aa:af:5b:c7:56:
                    f6:e1:49:55:d9:92:ba:70:37:73:4c:91:6b:cc:10:
                    8e:58:f2:e2:1b:1b:1e:72:3e:c6:bb:a5:ca:08:d8:
                    bb:23:bb:bf:86:02:de:11:e9:d9:79:6d:60:a6:c6:
                    0c:2c:e3:35:72:f1:76:bf:b5
                Exponent: 65537 (0x10001)
        X509v3 extensions:
            X509v3 Subject Alternative Name: 
                DNS:pic2.zhimg.com
    Signature Algorithm: sha256WithRSAEncryption
         6f:57:ef:cc:84:c6:01:08:a1:be:cc:fc:12:d0:23:2e:b7:1a:
         ca:2b:69:4f:63:47:09:53:1d:6a:de:c0:13:b8:a2:b6:ec:37:
         6a:89:5e:42:39:97:91:56:a6:2d:4d:36:c7:ee:0a:27:14:bc:
         9a:22:a8:8c:e0:4d:4a:28:eb:b2:0e:96:97:bf:7c:8e:93:44:
         12:ad:d0:3a:dc:fa:b6:72:8b:88:d0:a7:df:f2:0f:7d:70:8b:
         35:fe:b8:55:8b:05:c2:35:75:9f:c0:59:ac:bc:ce:bc:5c:dc:
         00:a5:48:30:e7:96:4d:b6:2a:d4:c2:e4:e3:ea:3e:17:52:a3:
         b7:1a:c3:e4:10:b3:83:2a:b0:9e:98:79:02:78:99:7d:e6:a8:
         e8:c6:19:cf:42:9f:45:7e:0e:af:59:a1:fa:66:1c:84:8c:7b:
         27:d6:29:15:99:eb:34:14:d9:85:ca:70:c6:0e:58:66:b4:2d:
         ff:e9:c2:f7:00:55:c6:ad:fe:55:94:e4:9e:b7:80:59:23:1d:
         69:7e:51:aa:95:14:bc:80:e0:92:bc:fc:f9:8a:c4:5b:54:8b:
         64:a9:fe:c1:a4:36:00:8f:61:3c:4b:96:52:30:07:a5:2e:74:
         07:59:dc:17:cf:f0:86:17:27:61:b0:1e:a1:4b:cc:57:2e:42:
         5e:44:df:55
-----BEGIN CERTIFICATE-----
MIIDZzCCAk+gAwIBAgIBOjANBgkqhkiG9w0BAQsFADCBrTELMAkGA1UEBhMCVVMx
EzARBgNVBAgMCkNhbGlmb3JuaWExFDASBgNVBAcMC0xvcyBBbmdlbGVzMRUwEwYD
VQQKDAxEaWdpQ2VydCBJbmMxGTAXBgNVBAsMEHd3dy5kaWdpY2VydC5jb20xIDAe
BgNVBAMMF0RpZ2lDZXJ0IEdsb2JhbCBSb290IENBMR8wHQYJKoZIhvcNAQkBFhB3
d3cuZGlnaWNlcnQuY29tMB4XDTI0MDMyMTA5MDgyMloXDTM0MDMxOTA5MDgyMlow
gaQxCzAJBgNVBAYTAlVTMRMwEQYDVQQIDApDYWxpZm9ybmlhMRQwEgYDVQQHDAtM
b3MgQW5nZWxlczEVMBMGA1UECgwMRGlnaUNlcnQgSW5jMRkwFwYDVQQLDBB3d3cu
ZGlnaWNlcnQuY29tMRcwFQYDVQQDDA5waWMyLnpoaW1nLmNvbTEfMB0GCSqGSIb3
DQEJARYQd3d3LmRpZ2ljZXJ0LmNvbTCBnzANBgkqhkiG9w0BAQEFAAOBjQAwgYkC
gYEAuq1MCRo8hU9g1ZO8nhL0mxbni9IoKav5OJnhhDobcG6gW63zTmVcGftWiRb7
aDZDGju2Mk1jQ7DFEGk9lhN/quR01LNgqq9bx1b24UlV2ZK6cDdzTJFrzBCOWPLi
Gxsecj7Gu6XKCNi7I7u/hgLeEenZeW1gpsYMLOM1cvF2v7UCAwEAAaMdMBswGQYD
VR0RBBIwEIIOcGljMi56aGltZy5jb20wDQYJKoZIhvcNAQELBQADggEBAG9X78yE
xgEIob7M/BLQIy63GsoraU9jRwlTHWrewBO4orbsN2qJXkI5l5FWpi1NNsfuCicU
vJoiqIzgTUoo67IOlpe/fI6TRBKt0Drc+rZyi4jQp9/yD31wizX+uFWLBcI1dZ/A
Way8zrxc3AClSDDnlk22KtTC5OPqPhdSo7caw+QQs4MqsJ6YeQJ4mX3mqOjGGc9C
n0V+Dq9ZofpmHISMeyfWKRWZ6zQU2YXKcMYOWGa0Lf/pwvcAVcat/lWU5J63gFkj
HWl+UaqVFLyA4JK8/PmKxFtUi2Sp/sGkNgCPYTxLllIwB6UudAdZ3BfP8IYXJ2Gw
HqFLzFcuQl5E31U=
-----END CERTIFICATE-----
