Certificate:
    Data:
        Version: 3 (0x2)
        Serial Number: 52 (0x34)
        Signature Algorithm: sha256WithRSAEncryption
        Issuer: C=US, ST=California, L=Los Angeles, O=DigiCert Inc, OU=www.digicert.com, CN=DigiCert Global Root CA/emailAddress=www.digicert.com
        Validity
            Not Before: Mar 21 09:08:20 2024 GMT
            Not After : Mar 19 09:08:20 2034 GMT
        Subject: C=US, ST=California, L=Los Angeles, O=DigiCert Inc, OU=www.digicert.com, CN=pic3.zhimg.com/emailAddress=www.digicert.com
        Subject Public Key Info:
            Public Key Algorithm: rsaEncryption
                RSA Public-Key: (1024 bit)
                Modulus:
                    00:ba:ad:4c:09:1a:3c:85:4f:60:d5:93:bc:9e:12:
                    f4:9b:16:e7:8b:d2:28:29:ab:f9:38:99:e1:84:3a:
                    1b:70:6e:a0:5b:ad:f3:4e:65:5c:19:fb:56:89:16:
                    fb:68:36:43:1a:3b:b6:32:4d:63:43:b0:c5:10:69:
                    3d:96:13:7f:aa:e4:74:d4:b3:60:aa:af:5b:c7:56:
                    f6:e1:49:55:d9:92:ba:70:37:73:4c:91:6b:cc:10:
                    8e:58:f2:e2:1b:1b:1e:72:3e:c6:bb:a5:ca:08:d8:
                    bb:23:bb:bf:86:02:de:11:e9:d9:79:6d:60:a6:c6:
                    0c:2c:e3:35:72:f1:76:bf:b5
                Exponent: 65537 (0x10001)
        X509v3 extensions:
            X509v3 Subject Alternative Name: 
                DNS:pic3.zhimg.com
    Signature Algorithm: sha256WithRSAEncryption
         68:9c:be:29:95:2d:ea:95:f0:53:6b:1d:8b:ce:cc:01:27:29:
         29:31:52:47:eb:f6:1d:cb:be:bf:52:cc:cb:f1:de:c9:a1:24:
         a0:79:4f:f1:db:f4:c2:0d:c4:09:74:94:58:ba:97:ae:b6:1d:
         c5:a4:84:a6:69:57:27:0a:52:6e:b2:9f:6f:2c:0a:25:f8:ac:
         4b:e5:7a:e3:5c:7d:ab:e0:3d:96:96:a9:60:d1:14:fc:93:99:
         b5:f1:03:a4:c4:91:4b:0f:b3:16:e8:70:9e:b5:cb:ba:0e:36:
         70:b0:86:db:5d:f3:cc:1a:be:d2:b2:1c:ae:2b:d7:46:a8:04:
         58:ab:0c:8d:06:c8:c9:a1:78:fc:a2:72:6c:99:bb:6a:6d:7c:
         86:fa:65:9d:4b:d2:92:89:01:e9:c9:1a:0c:bd:38:0e:2a:c4:
         2f:c7:d4:7b:fa:28:55:59:6d:d3:87:c9:ed:fa:df:f6:d8:6a:
         54:9d:b7:13:7e:49:02:4b:f5:e2:10:c9:7d:d3:3a:98:02:db:
         b6:8a:bd:e9:39:94:20:91:61:0b:cf:d5:5a:1e:42:e1:86:0e:
         22:33:46:d4:3a:08:4c:58:ad:32:b2:a6:da:1d:b6:e1:90:51:
         bc:a5:6d:e4:70:a7:de:26:3d:fe:82:c7:4b:16:e3:cd:be:00:
         ff:39:fb:df
-----BEGIN CERTIFICATE-----
MIIDZzCCAk+gAwIBAgIBNDANBgkqhkiG9w0BAQsFADCBrTELMAkGA1UEBhMCVVMx
EzARBgNVBAgMCkNhbGlmb3JuaWExFDASBgNVBAcMC0xvcyBBbmdlbGVzMRUwEwYD
VQQKDAxEaWdpQ2VydCBJbmMxGTAXBgNVBAsMEHd3dy5kaWdpY2VydC5jb20xIDAe
BgNVBAMMF0RpZ2lDZXJ0IEdsb2JhbCBSb290IENBMR8wHQYJKoZIhvcNAQkBFhB3
d3cuZGlnaWNlcnQuY29tMB4XDTI0MDMyMTA5MDgyMFoXDTM0MDMxOTA5MDgyMFow
gaQxCzAJBgNVBAYTAlVTMRMwEQYDVQQIDApDYWxpZm9ybmlhMRQwEgYDVQQHDAtM
b3MgQW5nZWxlczEVMBMGA1UECgwMRGlnaUNlcnQgSW5jMRkwFwYDVQQLDBB3d3cu
ZGlnaWNlcnQuY29tMRcwFQYDVQQDDA5waWMzLnpoaW1nLmNvbTEfMB0GCSqGSIb3
DQEJARYQd3d3LmRpZ2ljZXJ0LmNvbTCBnzANBgkqhkiG9w0BAQEFAAOBjQAwgYkC
gYEAuq1MCRo8hU9g1ZO8nhL0mxbni9IoKav5OJnhhDobcG6gW63zTmVcGftWiRb7
aDZDGju2Mk1jQ7DFEGk9lhN/quR01LNgqq9bx1b24UlV2ZK6cDdzTJFrzBCOWPLi
Gxsecj7Gu6XKCNi7I7u/hgLeEenZeW1gpsYMLOM1cvF2v7UCAwEAAaMdMBswGQYD
VR0RBBIwEIIOcGljMy56aGltZy5jb20wDQYJKoZIhvcNAQELBQADggEBAGicvimV
LeqV8FNrHYvOzAEnKSkxUkfr9h3Lvr9SzMvx3smhJKB5T/Hb9MINxAl0lFi6l662
HcWkhKZpVycKUm6yn28sCiX4rEvleuNcfavgPZaWqWDRFPyTmbXxA6TEkUsPsxbo
cJ61y7oONnCwhttd88wavtKyHK4r10aoBFirDI0GyMmhePyicmyZu2ptfIb6ZZ1L
0pKJAenJGgy9OA4qxC/H1Hv6KFVZbdOHye363/bYalSdtxN+SQJL9eIQyX3TOpgC
27aKvek5lCCRYQvP1VoeQuGGDiIzRtQ6CExYrTKyptodtuGQUbylbeRwp94mPf6C
x0sW482+AP85+98=
-----END CERTIFICATE-----
