Certificate:
    Data:
        Version: 3 (0x2)
        Serial Number: 63 (0x3f)
        Signature Algorithm: sha256WithRSAEncryption
        Issuer: C=US, ST=California, L=Los Angeles, O=DigiCert Inc, OU=www.digicert.com, CN=DigiCert Global Root CA/emailAddress=www.digicert.com
        Validity
            Not Before: Mar 21 09:08:24 2024 GMT
            Not After : Mar 19 09:08:24 2034 GMT
        Subject: C=US, ST=California, L=Los Angeles, O=DigiCert Inc, OU=www.digicert.com, CN=pic4.zhimg.com/emailAddress=www.digicert.com
        Subject Public Key Info:
            Public Key Algorithm: rsaEncryption
                RSA Public-Key: (1024 bit)
                Modulus:
                    00:ba:ad:4c:09:1a:3c:85:4f:60:d5:93:bc:9e:12:
                    f4:9b:16:e7:8b:d2:28:29:ab:f9:38:99:e1:84:3a:
                    1b:70:6e:a0:5b:ad:f3:4e:65:5c:19:fb:56:89:16:
                    fb:68:36:43:1a:3b:b6:32:4d:63:43:b0:c5:10:69:
                    3d:96:13:7f:aa:e4:74:d4:b3:60:aa:af:5b:c7:56:
                    f6:e1:49:55:d9:92:ba:70:37:73:4c:91:6b:cc:10:
                    8e:58:f2:e2:1b:1b:1e:72:3e:c6:bb:a5:ca:08:d8:
                    bb:23:bb:bf:86:02:de:11:e9:d9:79:6d:60:a6:c6:
                    0c:2c:e3:35:72:f1:76:bf:b5
                Exponent: 65537 (0x10001)
        X509v3 extensions:
            X509v3 Subject Alternative Name: 
                DNS:pic4.zhimg.com
    Signature Algorithm: sha256WithRSAEncryption
         10:ef:10:1c:d4:5c:f5:f8:1a:b6:d2:c5:0c:ed:23:79:0d:50:
         c0:7b:13:86:e0:e2:02:4b:dd:6a:bd:d5:21:9c:cf:f6:f7:06:
         1d:8e:08:f8:93:31:3f:d1:9f:9f:47:ba:03:73:f7:60:70:48:
         f8:83:32:39:15:8a:93:2a:43:55:5b:77:7e:73:d5:8b:49:a5:
         77:7b:3a:04:50:49:26:c5:f1:90:a1:d5:20:60:c2:92:0f:db:
         5e:15:6b:74:90:ad:cb:d4:24:4c:93:e4:56:9e:82:64:12:7b:
         4c:d2:7d:74:ce:c6:1b:89:8b:05:2e:5c:c3:b4:c9:b4:e8:e5:
         01:22:2f:c1:8f:67:1d:5f:25:51:fa:cd:b5:b8:85:73:c7:ad:
         8b:88:54:d5:2d:ee:10:75:6e:ed:e7:3c:06:41:aa:18:40:2c:
         65:1c:28:eb:b3:1b:1b:5d:55:5c:ef:50:f9:91:eb:0b:8e:22:
         57:7b:c0:9a:51:2e:90:d9:c1:40:49:94:e6:74:71:53:61:fb:
         c2:cc:ba:7d:2b:7d:14:ee:23:2a:07:f3:b7:13:51:52:a4:b9:
         bb:11:c9:74:e5:f2:45:c4:93:88:ce:53:5e:26:41:71:73:19:
         d7:e5:da:00:a3:b6:70:c5:df:e0:4c:fd:4b:b6:54:1c:98:ef:
         7d:5e:c1:59
-----BEGIN CERTIFICATE-----
MIIDZzCCAk+gAwIBAgIBPzANBgkqhkiG9w0BAQsFADCBrTELMAkGA1UEBhMCVVMx
EzARBgNVBAgMCkNhbGlmb3JuaWExFDASBgNVBAcMC0xvcyBBbmdlbGVzMRUwEwYD
VQQKDAxEaWdpQ2VydCBJbmMxGTAXBgNVBAsMEHd3dy5kaWdpY2VydC5jb20xIDAe
BgNVBAMMF0RpZ2lDZXJ0IEdsb2JhbCBSb290IENBMR8wHQYJKoZIhvcNAQkBFhB3
d3cuZGlnaWNlcnQuY29tMB4XDTI0MDMyMTA5MDgyNFoXDTM0MDMxOTA5MDgyNFow
gaQxCzAJBgNVBAYTAlVTMRMwEQYDVQQIDApDYWxpZm9ybmlhMRQwEgYDVQQHDAtM
b3MgQW5nZWxlczEVMBMGA1UECgwMRGlnaUNlcnQgSW5jMRkwFwYDVQQLDBB3d3cu
ZGlnaWNlcnQuY29tMRcwFQYDVQQDDA5waWM0LnpoaW1nLmNvbTEfMB0GCSqGSIb3
DQEJARYQd3d3LmRpZ2ljZXJ0LmNvbTCBnzANBgkqhkiG9w0BAQEFAAOBjQAwgYkC
gYEAuq1MCRo8hU9g1ZO8nhL0mxbni9IoKav5OJnhhDobcG6gW63zTmVcGftWiRb7
aDZDGju2Mk1jQ7DFEGk9lhN/quR01LNgqq9bx1b24UlV2ZK6cDdzTJFrzBCOWPLi
Gxsecj7Gu6XKCNi7I7u/hgLeEenZeW1gpsYMLOM1cvF2v7UCAwEAAaMdMBswGQYD
VR0RBBIwEIIOcGljNC56aGltZy5jb20wDQYJKoZIhvcNAQELBQADggEBABDvEBzU
XPX4GrbSxQztI3kNUMB7E4bg4gJL3Wq91SGcz/b3Bh2OCPiTMT/Rn59HugNz92Bw
SPiDMjkVipMqQ1Vbd35z1YtJpXd7OgRQSSbF8ZCh1SBgwpIP214Va3SQrcvUJEyT
5FaegmQSe0zSfXTOxhuJiwUuXMO0ybTo5QEiL8GPZx1fJVH6zbW4hXPHrYuIVNUt
7hB1bu3nPAZBqhhALGUcKOuzGxtdVVzvUPmR6wuOIld7wJpRLpDZwUBJlOZ0cVNh
+8LMun0rfRTuIyoH87cTUVKkubsRyXTl8kXEk4jOU14mQXFzGdfl2gCjtnDF3+BM
/Uu2VByY731ewVk=
-----END CERTIFICATE-----
