Certificate:
    Data:
        Version: 3 (0x2)
        Serial Number: 59 (0x3b)
        Signature Algorithm: sha256WithRSAEncryption
        Issuer: C=US, ST=California, L=Los Angeles, O=DigiCert Inc, OU=www.digicert.com, CN=DigiCert Global Root CA/emailAddress=www.digicert.com
        Validity
            Not Before: Mar 21 09:08:22 2024 GMT
            Not After : Mar 19 09:08:22 2034 GMT
        Subject: C=US, ST=California, L=Los Angeles, O=DigiCert Inc, OU=www.digicert.com, CN=pica.zhimg.com/emailAddress=www.digicert.com
        Subject Public Key Info:
            Public Key Algorithm: rsaEncryption
                RSA Public-Key: (1024 bit)
                Modulus:
                    00:ba:ad:4c:09:1a:3c:85:4f:60:d5:93:bc:9e:12:
                    f4:9b:16:e7:8b:d2:28:29:ab:f9:38:99:e1:84:3a:
                    1b:70:6e:a0:5b:ad:f3:4e:65:5c:19:fb:56:89:16:
                    fb:68:36:43:1a:3b:b6:32:4d:63:43:b0:c5:10:69:
                    3d:96:13:7f:aa:e4:74:d4:b3:60:aa:af:5b:c7:56:
                    f6:e1:49:55:d9:92:ba:70:37:73:4c:91:6b:cc:10:
                    8e:58:f2:e2:1b:1b:1e:72:3e:c6:bb:a5:ca:08:d8:
                    bb:23:bb:bf:86:02:de:11:e9:d9:79:6d:60:a6:c6:
                    0c:2c:e3:35:72:f1:76:bf:b5
                Exponent: 65537 (0x10001)
        X509v3 extensions:
            X509v3 Subject Alternative Name: 
                DNS:pica.zhimg.com
    Signature Algorithm: sha256WithRSAEncryption
         64:09:45:a1:25:56:e3:cd:7e:b8:82:05:d6:2e:87:3e:08:f1:
         46:5f:98:bd:bd:6f:d6:df:fe:03:92:85:27:49:2e:32:38:d2:
         4c:de:58:e6:9f:50:d3:3b:fa:3e:c5:3e:27:05:c2:d6:80:fc:
         31:0f:f7:e0:a9:54:79:be:5f:9e:7d:26:e9:0d:d7:40:85:71:
         19:b8:cb:fb:21:12:7f:c5:3b:a5:ec:1f:5b:04:a4:49:78:c7:
         76:01:59:98:5d:2a:43:75:1b:2a:b2:a9:c0:f8:c7:68:29:1b:
         58:ee:2b:63:52:55:7c:b7:21:87:cb:6d:06:43:48:7a:86:30:
         50:df:db:51:4d:20:98:6e:f2:81:85:5c:b4:93:77:18:2e:8b:
         b3:fa:ce:82:7e:b5:20:d5:13:ba:bc:b0:50:68:75:7b:da:aa:
         9e:56:c5:22:43:c3:01:0c:78:25:00:0e:d8:5b:7c:6b:5e:dc:
         57:e6:0c:04:a8:a2:78:a2:d2:e1:d4:9f:18:d1:bf:ec:4c:36:
         8c:41:e8:a4:72:d3:19:4b:f6:2a:60:8e:d3:c8:95:8d:ee:f6:
         79:16:3d:09:8c:c7:cd:2c:fd:b8:c4:f7:83:af:00:70:c3:f4:
         ba:9a:c6:c2:c7:b1:62:a2:5e:64:cf:00:e9:26:6e:15:74:33:
         82:82:4f:a1
-----BEGIN CERTIFICATE-----
MIIDZzCCAk+gAwIBAgIBOzANBgkqhkiG9w0BAQsFADCBrTELMAkGA1UEBhMCVVMx
EzARBgNVBAgMCkNhbGlmb3JuaWExFDASBgNVBAcMC0xvcyBBbmdlbGVzMRUwEwYD
VQQKDAxEaWdpQ2VydCBJbmMxGTAXBgNVBAsMEHd3dy5kaWdpY2VydC5jb20xIDAe
BgNVBAMMF0RpZ2lDZXJ0IEdsb2JhbCBSb290IENBMR8wHQYJKoZIhvcNAQkBFhB3
d3cuZGlnaWNlcnQuY29tMB4XDTI0MDMyMTA5MDgyMloXDTM0MDMxOTA5MDgyMlow
gaQxCzAJBgNVBAYTAlVTMRMwEQYDVQQIDApDYWxpZm9ybmlhMRQwEgYDVQQHDAtM
b3MgQW5nZWxlczEVMBMGA1UECgwMRGlnaUNlcnQgSW5jMRkwFwYDVQQLDBB3d3cu
ZGlnaWNlcnQuY29tMRcwFQYDVQQDDA5waWNhLnpoaW1nLmNvbTEfMB0GCSqGSIb3
DQEJARYQd3d3LmRpZ2ljZXJ0LmNvbTCBnzANBgkqhkiG9w0BAQEFAAOBjQAwgYkC
gYEAuq1MCRo8hU9g1ZO8nhL0mxbni9IoKav5OJnhhDobcG6gW63zTmVcGftWiRb7
aDZDGju2Mk1jQ7DFEGk9lhN/quR01LNgqq9bx1b24UlV2ZK6cDdzTJFrzBCOWPLi
Gxsecj7Gu6XKCNi7I7u/hgLeEenZeW1gpsYMLOM1cvF2v7UCAwEAAaMdMBswGQYD
VR0RBBIwEIIOcGljYS56aGltZy5jb20wDQYJKoZIhvcNAQELBQADggEBAGQJRaEl
VuPNfriCBdYuhz4I8UZfmL29b9bf/gOShSdJLjI40kzeWOafUNM7+j7FPicFwtaA
/DEP9+CpVHm+X559JukN10CFcRm4y/shEn/FO6XsH1sEpEl4x3YBWZhdKkN1Gyqy
qcD4x2gpG1juK2NSVXy3IYfLbQZDSHqGMFDf21FNIJhu8oGFXLSTdxgui7P6zoJ+
tSDVE7q8sFBodXvaqp5WxSJDwwEMeCUADthbfGte3FfmDASoonii0uHUnxjRv+xM
NoxB6KRy0xlL9ipgjtPIlY3u9nkWPQmMx80s/bjE94OvAHDD9LqaxsLHsWKiXmTP
AOkmbhV0M4KCT6E=
-----END CERTIFICATE-----
