Certificate:
    Data:
        Version: 3 (0x2)
        Serial Number: 49 (0x31)
        Signature Algorithm: sha256WithRSAEncryption
        Issuer: C=US, ST=California, L=Los Angeles, O=DigiCert Inc, OU=www.digicert.com, CN=DigiCert Global Root CA/emailAddress=www.digicert.com
        Validity
            Not Before: Mar 21 09:08:18 2024 GMT
            Not After : Mar 19 09:08:18 2034 GMT
        Subject: C=US, ST=California, L=Los Angeles, O=DigiCert Inc, OU=www.digicert.com, CN=picx.zhimg.com/emailAddress=www.digicert.com
        Subject Public Key Info:
            Public Key Algorithm: rsaEncryption
                RSA Public-Key: (1024 bit)
                Modulus:
                    00:ba:ad:4c:09:1a:3c:85:4f:60:d5:93:bc:9e:12:
                    f4:9b:16:e7:8b:d2:28:29:ab:f9:38:99:e1:84:3a:
                    1b:70:6e:a0:5b:ad:f3:4e:65:5c:19:fb:56:89:16:
                    fb:68:36:43:1a:3b:b6:32:4d:63:43:b0:c5:10:69:
                    3d:96:13:7f:aa:e4:74:d4:b3:60:aa:af:5b:c7:56:
                    f6:e1:49:55:d9:92:ba:70:37:73:4c:91:6b:cc:10:
                    8e:58:f2:e2:1b:1b:1e:72:3e:c6:bb:a5:ca:08:d8:
                    bb:23:bb:bf:86:02:de:11:e9:d9:79:6d:60:a6:c6:
                    0c:2c:e3:35:72:f1:76:bf:b5
                Exponent: 65537 (0x10001)
        X509v3 extensions:
            X509v3 Subject Alternative Name: 
                DNS:picx.zhimg.com
    Signature Algorithm: sha256WithRSAEncryption
         7a:85:aa:4e:eb:76:51:75:3e:14:bf:3a:ad:a4:f3:a1:de:57:
         b8:21:32:9c:83:24:2b:6b:74:80:f3:80:72:29:a2:f3:b9:d4:
         6a:cd:6e:fa:5e:01:4e:32:70:73:76:16:f1:64:61:15:9b:7e:
         17:61:f0:b6:a7:7b:19:5d:98:f6:41:6c:47:92:c7:0f:d8:8a:
         77:f8:7e:45:1c:7f:bb:c2:d3:80:48:2b:19:4b:57:0d:0f:7e:
         2e:4c:3f:28:6f:6a:70:f6:2d:ff:e6:63:06:75:07:d0:eb:11:
         07:34:ca:93:a7:2c:d0:d8:c9:f1:79:e7:cc:0b:79:95:46:42:
         ce:6c:a0:f6:92:23:39:ed:01:16:5c:3a:27:a4:b1:e5:20:1a:
         57:07:36:f7:91:e0:b2:50:0f:e0:2c:49:7d:e9:36:28:a4:cd:
         d7:be:cc:0c:40:0f:29:c8:b1:25:04:71:cb:02:88:f3:fd:f0:
         4a:0b:22:17:93:38:57:fe:7d:85:cc:6c:36:db:4e:2a:ca:bc:
         1d:29:fe:ca:bb:f6:17:74:d3:78:d2:76:0a:bd:ea:fa:b6:af:
         0b:ce:78:91:bc:50:83:ba:0d:b5:36:d5:aa:6a:0e:bc:77:00:
         78:3e:5a:a3:8e:a0:11:42:d7:01:80:39:55:85:d4:18:6a:65:
         2f:7d:e8:23
-----BEGIN CERTIFICATE-----
MIIDZzCCAk+gAwIBAgIBMTANBgkqhkiG9w0BAQsFADCBrTELMAkGA1UEBhMCVVMx
EzARBgNVBAgMCkNhbGlmb3JuaWExFDASBgNVBAcMC0xvcyBBbmdlbGVzMRUwEwYD
VQQKDAxEaWdpQ2VydCBJbmMxGTAXBgNVBAsMEHd3dy5kaWdpY2VydC5jb20xIDAe
BgNVBAMMF0RpZ2lDZXJ0IEdsb2JhbCBSb290IENBMR8wHQYJKoZIhvcNAQkBFhB3
d3cuZGlnaWNlcnQuY29tMB4XDTI0MDMyMTA5MDgxOFoXDTM0MDMxOTA5MDgxOFow
gaQxCzAJBgNVBAYTAlVTMRMwEQYDVQQIDApDYWxpZm9ybmlhMRQwEgYDVQQHDAtM
b3MgQW5nZWxlczEVMBMGA1UECgwMRGlnaUNlcnQgSW5jMRkwFwYDVQQLDBB3d3cu
ZGlnaWNlcnQuY29tMRcwFQYDVQQDDA5waWN4LnpoaW1nLmNvbTEfMB0GCSqGSIb3
DQEJARYQd3d3LmRpZ2ljZXJ0LmNvbTCBnzANBgkqhkiG9w0BAQEFAAOBjQAwgYkC
gYEAuq1MCRo8hU9g1ZO8nhL0mxbni9IoKav5OJnhhDobcG6gW63zTmVcGftWiRb7
aDZDGju2Mk1jQ7DFEGk9lhN/quR01LNgqq9bx1b24UlV2ZK6cDdzTJFrzBCOWPLi
Gxsecj7Gu6XKCNi7I7u/hgLeEenZeW1gpsYMLOM1cvF2v7UCAwEAAaMdMBswGQYD
VR0RBBIwEIIOcGljeC56aGltZy5jb20wDQYJKoZIhvcNAQELBQADggEBAHqFqk7r
dlF1PhS/Oq2k86HeV7ghMpyDJCtrdIDzgHIpovO51GrNbvpeAU4ycHN2FvFkYRWb
fhdh8LanexldmPZBbEeSxw/Yinf4fkUcf7vC04BIKxlLVw0Pfi5MPyhvanD2Lf/m
YwZ1B9DrEQc0ypOnLNDYyfF558wLeZVGQs5soPaSIzntARZcOiekseUgGlcHNveR
4LJQD+AsSX3pNiikzde+zAxADynIsSUEccsCiPP98EoLIheTOFf+fYXMbDbbTirK
vB0p/sq79hd003jSdgq96vq2rwvOeJG8UIO6DbU21apqDrx3AHg+WqOOoBFC1wGA
OVWF1BhqZS996CM=
-----END CERTIFICATE-----
