Certificate:
    Data:
        Version: 3 (0x2)
        Serial Number: 6 (0x6)
        Signature Algorithm: sha256WithRSAEncryption
        Issuer: C=US, ST=California, L=Los Angeles, O=DigiCert Inc, OU=www.digicert.com, CN=DigiCert Global Root CA/emailAddress=www.digicert.com
        Validity
            Not Before: Mar 21 08:56:51 2024 GMT
            Not After : Mar 19 08:56:51 2034 GMT
        Subject: C=US, ST=California, L=Los Angeles, O=DigiCert Inc, OU=www.digicert.com, CN=render.alipay.com/emailAddress=www.digicert.com
        Subject Public Key Info:
            Public Key Algorithm: rsaEncryption
                RSA Public-Key: (1024 bit)
                Modulus:
                    00:ba:ad:4c:09:1a:3c:85:4f:60:d5:93:bc:9e:12:
                    f4:9b:16:e7:8b:d2:28:29:ab:f9:38:99:e1:84:3a:
                    1b:70:6e:a0:5b:ad:f3:4e:65:5c:19:fb:56:89:16:
                    fb:68:36:43:1a:3b:b6:32:4d:63:43:b0:c5:10:69:
                    3d:96:13:7f:aa:e4:74:d4:b3:60:aa:af:5b:c7:56:
                    f6:e1:49:55:d9:92:ba:70:37:73:4c:91:6b:cc:10:
                    8e:58:f2:e2:1b:1b:1e:72:3e:c6:bb:a5:ca:08:d8:
                    bb:23:bb:bf:86:02:de:11:e9:d9:79:6d:60:a6:c6:
                    0c:2c:e3:35:72:f1:76:bf:b5
                Exponent: 65537 (0x10001)
        X509v3 extensions:
            X509v3 Subject Alternative Name: 
                DNS:render.alipay.com
    Signature Algorithm: sha256WithRSAEncryption
         72:6c:37:9e:35:1c:8e:ff:15:d2:f0:9e:08:b4:eb:e6:64:2e:
         5c:8d:4b:a6:5d:96:62:aa:12:94:ce:4a:72:05:82:83:06:74:
         c7:53:e8:28:1c:b2:ab:b9:75:77:5b:ab:a6:4d:0f:f9:5e:43:
         17:c0:67:79:55:05:6d:5e:e1:52:d4:6f:78:6b:39:7b:23:e4:
         4b:c8:a6:25:78:c6:f6:9b:1b:41:d9:02:c6:2e:68:ef:c2:3f:
         cf:61:f0:93:5e:ff:05:b2:79:a3:2b:cb:cf:39:c9:c0:5d:be:
         b5:75:f4:6a:38:5a:70:93:bd:85:83:10:7b:c0:41:eb:1e:a7:
         02:b5:e4:82:de:b1:db:16:d4:30:bd:5b:76:6b:ef:50:1c:d0:
         21:0a:48:50:fe:35:c6:06:d2:25:9d:15:ac:52:fb:8a:e3:6c:
         65:f1:86:e9:a5:a3:5a:f6:9e:50:4f:67:b5:3e:9b:5f:a4:bf:
         97:df:cb:c4:9e:c7:44:45:fc:30:26:0a:7f:f5:02:7a:5a:ab:
         23:ae:ec:3f:77:a5:b4:ec:9d:f5:af:26:85:80:7a:60:62:38:
         cf:e4:ee:61:9c:40:a7:45:72:0b:8e:75:70:62:c6:5b:6c:52:
         3a:9c:39:9a:4b:7c:79:8f:02:6d:e8:08:77:17:fb:6f:01:bd:
         36:e6:d5:6e
-----BEGIN CERTIFICATE-----
MIIDbTCCAlWgAwIBAgIBBjANBgkqhkiG9w0BAQsFADCBrTELMAkGA1UEBhMCVVMx
EzARBgNVBAgMCkNhbGlmb3JuaWExFDASBgNVBAcMC0xvcyBBbmdlbGVzMRUwEwYD
VQQKDAxEaWdpQ2VydCBJbmMxGTAXBgNVBAsMEHd3dy5kaWdpY2VydC5jb20xIDAe
BgNVBAMMF0RpZ2lDZXJ0IEdsb2JhbCBSb290IENBMR8wHQYJKoZIhvcNAQkBFhB3
d3cuZGlnaWNlcnQuY29tMB4XDTI0MDMyMTA4NTY1MVoXDTM0MDMxOTA4NTY1MVow
gacxCzAJBgNVBAYTAlVTMRMwEQYDVQQIDApDYWxpZm9ybmlhMRQwEgYDVQQHDAtM
b3MgQW5nZWxlczEVMBMGA1UECgwMRGlnaUNlcnQgSW5jMRkwFwYDVQQLDBB3d3cu
ZGlnaWNlcnQuY29tMRowGAYDVQQDDBFyZW5kZXIuYWxpcGF5LmNvbTEfMB0GCSqG
SIb3DQEJARYQd3d3LmRpZ2ljZXJ0LmNvbTCBnzANBgkqhkiG9w0BAQEFAAOBjQAw
gYkCgYEAuq1MCRo8hU9g1ZO8nhL0mxbni9IoKav5OJnhhDobcG6gW63zTmVcGftW
iRb7aDZDGju2Mk1jQ7DFEGk9lhN/quR01LNgqq9bx1b24UlV2ZK6cDdzTJFrzBCO
WPLiGxsecj7Gu6XKCNi7I7u/hgLeEenZeW1gpsYMLOM1cvF2v7UCAwEAAaMgMB4w
HAYDVR0RBBUwE4IRcmVuZGVyLmFsaXBheS5jb20wDQYJKoZIhvcNAQELBQADggEB
AHJsN541HI7/FdLwngi06+ZkLlyNS6ZdlmKqEpTOSnIFgoMGdMdT6Cgcsqu5dXdb
q6ZND/leQxfAZ3lVBW1e4VLUb3hrOXsj5EvIpiV4xvabG0HZAsYuaO/CP89h8JNe
/wWyeaMry885ycBdvrV19Go4WnCTvYWDEHvAQesepwK15ILesdsW1DC9W3Zr71Ac
0CEKSFD+NcYG0iWdFaxS+4rjbGXxhumlo1r2nlBPZ7U+m1+kv5ffy8Sex0RF/DAm
Cn/1AnpaqyOu7D93pbTsnfWvJoWAemBiOM/k7mGcQKdFcguOdXBixltsUjqcOZpL
fHmPAm3oCHcX+28BvTbm1W4=
-----END CERTIFICATE-----
