Certificate:
    Data:
        Version: 3 (0x2)
        Serial Number: 34 (0x22)
        Signature Algorithm: sha256WithRSAEncryption
        Issuer: C=US, ST=California, L=Los Angeles, O=DigiCert Inc, OU=www.digicert.com, CN=DigiCert Global Root CA/emailAddress=www.digicert.com
        Validity
            Not Before: Mar 21 06:30:25 2024 GMT
            Not After : Mar 19 06:30:25 2034 GMT
        Subject: C=US, ST=California, L=Los Angeles, O=DigiCert Inc, OU=www.digicert.com, CN=render.alipay.com/emailAddress=www.digicert.com
        Subject Public Key Info:
            Public Key Algorithm: rsaEncryption
                RSA Public-Key: (1024 bit)
                Modulus:
                    00:ba:ad:4c:09:1a:3c:85:4f:60:d5:93:bc:9e:12:
                    f4:9b:16:e7:8b:d2:28:29:ab:f9:38:99:e1:84:3a:
                    1b:70:6e:a0:5b:ad:f3:4e:65:5c:19:fb:56:89:16:
                    fb:68:36:43:1a:3b:b6:32:4d:63:43:b0:c5:10:69:
                    3d:96:13:7f:aa:e4:74:d4:b3:60:aa:af:5b:c7:56:
                    f6:e1:49:55:d9:92:ba:70:37:73:4c:91:6b:cc:10:
                    8e:58:f2:e2:1b:1b:1e:72:3e:c6:bb:a5:ca:08:d8:
                    bb:23:bb:bf:86:02:de:11:e9:d9:79:6d:60:a6:c6:
                    0c:2c:e3:35:72:f1:76:bf:b5
                Exponent: 65537 (0x10001)
        X509v3 extensions:
            X509v3 Subject Alternative Name: 
                DNS:render.alipay.com
    Signature Algorithm: sha256WithRSAEncryption
         12:f2:23:01:a4:7c:0b:c5:60:d0:17:8d:a8:26:04:87:ee:8f:
         e3:ba:6d:bb:65:0c:6a:7c:b2:64:31:da:9a:28:75:db:b2:80:
         40:0d:31:21:06:15:ee:23:44:0b:b7:b3:ec:09:c6:93:64:1a:
         08:7b:fb:d3:46:d9:c6:a5:63:cf:58:ce:63:12:a5:9d:1b:46:
         b8:4c:ac:73:6e:59:92:08:74:21:ce:a7:53:cf:24:1f:34:0d:
         5b:4c:8c:30:69:e3:43:f3:ed:8f:dc:0f:06:b1:7b:4a:6e:45:
         59:12:cf:42:8c:e8:bb:d1:fc:9f:24:c0:ae:14:54:3d:d8:75:
         03:a3:f1:8c:90:10:42:27:62:23:34:34:92:cb:90:47:66:d4:
         92:07:1f:00:fa:83:f5:1e:e2:6a:52:15:48:20:6f:79:59:80:
         16:a8:d4:6e:3f:a6:b0:e4:f9:cb:6f:98:d6:40:ac:91:8d:9c:
         e4:aa:8d:dc:95:53:a8:80:41:f0:38:13:6b:de:9e:3f:8e:a0:
         62:46:c1:4a:ab:42:e7:12:2f:86:28:e5:9a:f4:92:f9:4d:58:
         c2:32:a7:79:84:b2:66:31:94:12:17:3b:95:5b:4d:89:cf:7e:
         e9:01:22:92:47:40:ba:8b:6f:dd:8a:5f:d6:17:a5:39:d6:ed:
         e2:22:52:c7
-----BEGIN CERTIFICATE-----
MIIDbTCCAlWgAwIBAgIBIjANBgkqhkiG9w0BAQsFADCBrTELMAkGA1UEBhMCVVMx
EzARBgNVBAgMCkNhbGlmb3JuaWExFDASBgNVBAcMC0xvcyBBbmdlbGVzMRUwEwYD
VQQKDAxEaWdpQ2VydCBJbmMxGTAXBgNVBAsMEHd3dy5kaWdpY2VydC5jb20xIDAe
BgNVBAMMF0RpZ2lDZXJ0IEdsb2JhbCBSb290IENBMR8wHQYJKoZIhvcNAQkBFhB3
d3cuZGlnaWNlcnQuY29tMB4XDTI0MDMyMTA2MzAyNVoXDTM0MDMxOTA2MzAyNVow
gacxCzAJBgNVBAYTAlVTMRMwEQYDVQQIDApDYWxpZm9ybmlhMRQwEgYDVQQHDAtM
b3MgQW5nZWxlczEVMBMGA1UECgwMRGlnaUNlcnQgSW5jMRkwFwYDVQQLDBB3d3cu
ZGlnaWNlcnQuY29tMRowGAYDVQQDDBFyZW5kZXIuYWxpcGF5LmNvbTEfMB0GCSqG
SIb3DQEJARYQd3d3LmRpZ2ljZXJ0LmNvbTCBnzANBgkqhkiG9w0BAQEFAAOBjQAw
gYkCgYEAuq1MCRo8hU9g1ZO8nhL0mxbni9IoKav5OJnhhDobcG6gW63zTmVcGftW
iRb7aDZDGju2Mk1jQ7DFEGk9lhN/quR01LNgqq9bx1b24UlV2ZK6cDdzTJFrzBCO
WPLiGxsecj7Gu6XKCNi7I7u/hgLeEenZeW1gpsYMLOM1cvF2v7UCAwEAAaMgMB4w
HAYDVR0RBBUwE4IRcmVuZGVyLmFsaXBheS5jb20wDQYJKoZIhvcNAQELBQADggEB
ABLyIwGkfAvFYNAXjagmBIfuj+O6bbtlDGp8smQx2poodduygEANMSEGFe4jRAu3
s+wJxpNkGgh7+9NG2calY89YzmMSpZ0bRrhMrHNuWZIIdCHOp1PPJB80DVtMjDBp
40Pz7Y/cDwaxe0puRVkSz0KM6LvR/J8kwK4UVD3YdQOj8YyQEEInYiM0NJLLkEdm
1JIHHwD6g/Ue4mpSFUggb3lZgBao1G4/prDk+ctvmNZArJGNnOSqjdyVU6iAQfA4
E2venj+OoGJGwUqrQucSL4Yo5Zr0kvlNWMIyp3mEsmYxlBIXO5VbTYnPfukBIpJH
QLqLb92KX9YXpTnW7eIiUsc=
-----END CERTIFICATE-----
