Certificate:
    Data:
        Version: 3 (0x2)
        Serial Number: 43 (0x2b)
        Signature Algorithm: sha256WithRSAEncryption
        Issuer: C=US, ST=California, L=Los Angeles, O=DigiCert Inc, OU=www.digicert.com, CN=DigiCert Global Root CA/emailAddress=www.digicert.com
        Validity
            Not Before: Mar 21 09:07:54 2024 GMT
            Not After : Mar 19 09:07:54 2034 GMT
        Subject: C=US, ST=California, L=Los Angeles, O=DigiCert Inc, OU=www.digicert.com, CN=report-uri.baidu.com/emailAddress=www.digicert.com
        Subject Public Key Info:
            Public Key Algorithm: rsaEncryption
                RSA Public-Key: (1024 bit)
                Modulus:
                    00:ba:ad:4c:09:1a:3c:85:4f:60:d5:93:bc:9e:12:
                    f4:9b:16:e7:8b:d2:28:29:ab:f9:38:99:e1:84:3a:
                    1b:70:6e:a0:5b:ad:f3:4e:65:5c:19:fb:56:89:16:
                    fb:68:36:43:1a:3b:b6:32:4d:63:43:b0:c5:10:69:
                    3d:96:13:7f:aa:e4:74:d4:b3:60:aa:af:5b:c7:56:
                    f6:e1:49:55:d9:92:ba:70:37:73:4c:91:6b:cc:10:
                    8e:58:f2:e2:1b:1b:1e:72:3e:c6:bb:a5:ca:08:d8:
                    bb:23:bb:bf:86:02:de:11:e9:d9:79:6d:60:a6:c6:
                    0c:2c:e3:35:72:f1:76:bf:b5
                Exponent: 65537 (0x10001)
        X509v3 extensions:
            X509v3 Subject Alternative Name: 
                DNS:report-uri.baidu.com
    Signature Algorithm: sha256WithRSAEncryption
         9d:7e:45:b0:ca:37:e1:94:bd:23:d4:24:fa:3f:25:8f:c8:f7:
         43:84:d6:5d:b8:e6:8c:18:20:6c:ed:ef:26:fe:3a:20:49:37:
         34:3f:1f:50:ca:31:3d:5c:53:ad:5f:53:e6:93:69:7f:30:5f:
         0b:40:1c:12:45:de:23:21:ae:3d:b1:d5:18:c1:ac:90:65:3a:
         bf:d4:31:a0:37:a4:74:0b:6f:e0:5d:c6:45:77:99:a7:aa:09:
         e1:42:f7:dd:07:72:b5:4c:9c:cf:66:c0:ed:48:3f:20:81:6d:
         37:b0:9b:a5:aa:74:a9:9b:fe:a2:93:cd:49:2a:f1:45:4b:7b:
         56:bc:e4:00:b2:3f:c4:84:33:c4:ec:25:84:b5:68:73:ee:dd:
         c2:10:ff:47:4c:eb:91:41:77:6d:ac:28:44:b0:9a:f9:19:42:
         cf:94:cd:27:2b:68:d6:30:fb:a8:05:b1:2c:71:b8:e5:7d:18:
         7c:12:91:59:75:f0:03:25:7f:c3:83:37:04:c8:b1:db:03:68:
         25:a2:ee:8f:c3:50:b7:98:1f:f0:dd:ee:fc:6f:05:69:b4:c6:
         f9:28:38:0e:9b:fa:f7:8b:32:b7:64:a3:ed:78:8d:b9:ab:0a:
         34:f4:93:e7:e2:74:55:21:33:ce:88:83:12:ff:63:ae:fc:ec:
         41:fe:8c:a1
-----BEGIN CERTIFICATE-----
MIIDczCCAlugAwIBAgIBKzANBgkqhkiG9w0BAQsFADCBrTELMAkGA1UEBhMCVVMx
EzARBgNVBAgMCkNhbGlmb3JuaWExFDASBgNVBAcMC0xvcyBBbmdlbGVzMRUwEwYD
VQQKDAxEaWdpQ2VydCBJbmMxGTAXBgNVBAsMEHd3dy5kaWdpY2VydC5jb20xIDAe
BgNVBAMMF0RpZ2lDZXJ0IEdsb2JhbCBSb290IENBMR8wHQYJKoZIhvcNAQkBFhB3
d3cuZGlnaWNlcnQuY29tMB4XDTI0MDMyMTA5MDc1NFoXDTM0MDMxOTA5MDc1NFow
gaoxCzAJBgNVBAYTAlVTMRMwEQYDVQQIDApDYWxpZm9ybmlhMRQwEgYDVQQHDAtM
b3MgQW5nZWxlczEVMBMGA1UECgwMRGlnaUNlcnQgSW5jMRkwFwYDVQQLDBB3d3cu
ZGlnaWNlcnQuY29tMR0wGwYDVQQDDBRyZXBvcnQtdXJpLmJhaWR1LmNvbTEfMB0G
CSqGSIb3DQEJARYQd3d3LmRpZ2ljZXJ0LmNvbTCBnzANBgkqhkiG9w0BAQEFAAOB
jQAwgYkCgYEAuq1MCRo8hU9g1ZO8nhL0mxbni9IoKav5OJnhhDobcG6gW63zTmVc
GftWiRb7aDZDGju2Mk1jQ7DFEGk9lhN/quR01LNgqq9bx1b24UlV2ZK6cDdzTJFr
zBCOWPLiGxsecj7Gu6XKCNi7I7u/hgLeEenZeW1gpsYMLOM1cvF2v7UCAwEAAaMj
MCEwHwYDVR0RBBgwFoIUcmVwb3J0LXVyaS5iYWlkdS5jb20wDQYJKoZIhvcNAQEL
BQADggEBAJ1+RbDKN+GUvSPUJPo/JY/I90OE1l245owYIGzt7yb+OiBJNzQ/H1DK
MT1cU61fU+aTaX8wXwtAHBJF3iMhrj2x1RjBrJBlOr/UMaA3pHQLb+BdxkV3maeq
CeFC990HcrVMnM9mwO1IPyCBbTewm6WqdKmb/qKTzUkq8UVLe1a85ACyP8SEM8Ts
JYS1aHPu3cIQ/0dM65FBd22sKESwmvkZQs+UzScraNYw+6gFsSxxuOV9GHwSkVl1
8AMlf8ODNwTIsdsDaCWi7o/DULeYH/Dd7vxvBWm0xvkoOA6b+veLMrdko+14jbmr
CjT0k+fidFUhM86IgxL/Y6787EH+jKE=
-----END CERTIFICATE-----
