Certificate:
    Data:
        Version: 3 (0x2)
        Serial Number: 16 (0x10)
        Signature Algorithm: sha256WithRSAEncryption
        Issuer: C=US, ST=California, L=Los Angeles, O=DigiCert Inc, OU=www.digicert.com, CN=DigiCert Global Root CA/emailAddress=www.digicert.com
        Validity
            Not Before: Mar 26 09:57:52 2024 GMT
            Not After : Mar 24 09:57:52 2034 GMT
        Subject: C=US, ST=California, L=Los Angeles, O=DigiCert Inc, OU=www.digicert.com, CN=s0.meituan.net/emailAddress=www.digicert.com
        Subject Public Key Info:
            Public Key Algorithm: rsaEncryption
                RSA Public-Key: (1024 bit)
                Modulus:
                    00:ba:ad:4c:09:1a:3c:85:4f:60:d5:93:bc:9e:12:
                    f4:9b:16:e7:8b:d2:28:29:ab:f9:38:99:e1:84:3a:
                    1b:70:6e:a0:5b:ad:f3:4e:65:5c:19:fb:56:89:16:
                    fb:68:36:43:1a:3b:b6:32:4d:63:43:b0:c5:10:69:
                    3d:96:13:7f:aa:e4:74:d4:b3:60:aa:af:5b:c7:56:
                    f6:e1:49:55:d9:92:ba:70:37:73:4c:91:6b:cc:10:
                    8e:58:f2:e2:1b:1b:1e:72:3e:c6:bb:a5:ca:08:d8:
                    bb:23:bb:bf:86:02:de:11:e9:d9:79:6d:60:a6:c6:
                    0c:2c:e3:35:72:f1:76:bf:b5
                Exponent: 65537 (0x10001)
        X509v3 extensions:
            X509v3 Subject Alternative Name: 
                DNS:s0.meituan.net
    Signature Algorithm: sha256WithRSAEncryption
         c0:1b:98:76:4a:0b:ca:04:77:e1:53:ee:9a:32:aa:63:d3:3c:
         8a:cd:47:a0:d4:7a:c3:99:91:83:d6:d5:68:b0:27:4b:50:18:
         40:ce:02:99:34:7f:76:e4:81:3d:8b:b0:0c:5e:60:bd:ef:e0:
         68:d0:37:fa:5e:16:ec:fd:2f:94:f1:24:5f:a0:55:62:4c:39:
         6a:c9:45:48:86:9c:35:3c:d1:13:0d:6b:b6:ce:a1:55:ad:fa:
         dc:cb:b7:c6:b7:43:7d:cd:9a:90:de:67:ed:8f:c1:ba:d3:07:
         a8:02:45:b8:00:bb:fe:48:f9:06:4d:50:e6:29:32:3a:ef:c6:
         a4:ca:4e:96:7c:bf:f1:a6:c3:d0:a7:f7:80:89:d4:bc:f9:56:
         0d:b5:54:4e:74:29:30:89:90:15:63:5a:ac:c9:a0:1b:8d:8a:
         69:af:d3:0a:ff:d9:a3:27:db:40:67:66:a7:97:10:9f:a2:4a:
         74:d6:bc:8c:0c:6e:f7:a9:b8:17:e9:ff:da:6c:1a:01:35:09:
         f9:c5:01:96:5c:14:3d:ab:51:a5:76:3c:9f:c2:b3:e0:d9:71:
         77:0d:d1:e1:40:cf:90:96:b9:90:e1:67:22:6e:34:5f:f0:72:
         6f:5b:b7:3c:2f:78:bf:52:9b:a5:9c:03:b9:99:4a:73:0d:4a:
         92:40:d2:47
-----BEGIN CERTIFICATE-----
MIIDZzCCAk+gAwIBAgIBEDANBgkqhkiG9w0BAQsFADCBrTELMAkGA1UEBhMCVVMx
EzARBgNVBAgMCkNhbGlmb3JuaWExFDASBgNVBAcMC0xvcyBBbmdlbGVzMRUwEwYD
VQQKDAxEaWdpQ2VydCBJbmMxGTAXBgNVBAsMEHd3dy5kaWdpY2VydC5jb20xIDAe
BgNVBAMMF0RpZ2lDZXJ0IEdsb2JhbCBSb290IENBMR8wHQYJKoZIhvcNAQkBFhB3
d3cuZGlnaWNlcnQuY29tMB4XDTI0MDMyNjA5NTc1MloXDTM0MDMyNDA5NTc1Mlow
gaQxCzAJBgNVBAYTAlVTMRMwEQYDVQQIDApDYWxpZm9ybmlhMRQwEgYDVQQHDAtM
b3MgQW5nZWxlczEVMBMGA1UECgwMRGlnaUNlcnQgSW5jMRkwFwYDVQQLDBB3d3cu
ZGlnaWNlcnQuY29tMRcwFQYDVQQDDA5zMC5tZWl0dWFuLm5ldDEfMB0GCSqGSIb3
DQEJARYQd3d3LmRpZ2ljZXJ0LmNvbTCBnzANBgkqhkiG9w0BAQEFAAOBjQAwgYkC
gYEAuq1MCRo8hU9g1ZO8nhL0mxbni9IoKav5OJnhhDobcG6gW63zTmVcGftWiRb7
aDZDGju2Mk1jQ7DFEGk9lhN/quR01LNgqq9bx1b24UlV2ZK6cDdzTJFrzBCOWPLi
Gxsecj7Gu6XKCNi7I7u/hgLeEenZeW1gpsYMLOM1cvF2v7UCAwEAAaMdMBswGQYD
VR0RBBIwEIIOczAubWVpdHVhbi5uZXQwDQYJKoZIhvcNAQELBQADggEBAMAbmHZK
C8oEd+FT7poyqmPTPIrNR6DUesOZkYPW1WiwJ0tQGEDOApk0f3bkgT2LsAxeYL3v
4GjQN/peFuz9L5TxJF+gVWJMOWrJRUiGnDU80RMNa7bOoVWt+tzLt8a3Q33NmpDe
Z+2PwbrTB6gCRbgAu/5I+QZNUOYpMjrvxqTKTpZ8v/Gmw9Cn94CJ1Lz5Vg21VE50
KTCJkBVjWqzJoBuNimmv0wr/2aMn20BnZqeXEJ+iSnTWvIwMbvepuBfp/9psGgE1
CfnFAZZcFD2rUaV2PJ/Cs+DZcXcN0eFAz5CWuZDhZyJuNF/wcm9btzwveL9Sm6Wc
A7mZSnMNSpJA0kc=
-----END CERTIFICATE-----
