Certificate:
    Data:
        Version: 3 (0x2)
        Serial Number: 12 (0xc)
        Signature Algorithm: sha256WithRSAEncryption
        Issuer: C=US, ST=California, L=Los Angeles, O=DigiCert Inc, OU=www.digicert.com, CN=DigiCert Global Root CA/emailAddress=www.digicert.com
        Validity
            Not Before: Mar 26 09:57:51 2024 GMT
            Not After : Mar 24 09:57:51 2034 GMT
        Subject: C=US, ST=California, L=Los Angeles, O=DigiCert Inc, OU=www.digicert.com, CN=s3.meituan.net/emailAddress=www.digicert.com
        Subject Public Key Info:
            Public Key Algorithm: rsaEncryption
                RSA Public-Key: (1024 bit)
                Modulus:
                    00:ba:ad:4c:09:1a:3c:85:4f:60:d5:93:bc:9e:12:
                    f4:9b:16:e7:8b:d2:28:29:ab:f9:38:99:e1:84:3a:
                    1b:70:6e:a0:5b:ad:f3:4e:65:5c:19:fb:56:89:16:
                    fb:68:36:43:1a:3b:b6:32:4d:63:43:b0:c5:10:69:
                    3d:96:13:7f:aa:e4:74:d4:b3:60:aa:af:5b:c7:56:
                    f6:e1:49:55:d9:92:ba:70:37:73:4c:91:6b:cc:10:
                    8e:58:f2:e2:1b:1b:1e:72:3e:c6:bb:a5:ca:08:d8:
                    bb:23:bb:bf:86:02:de:11:e9:d9:79:6d:60:a6:c6:
                    0c:2c:e3:35:72:f1:76:bf:b5
                Exponent: 65537 (0x10001)
        X509v3 extensions:
            X509v3 Subject Alternative Name: 
                DNS:s3.meituan.net
    Signature Algorithm: sha256WithRSAEncryption
         b1:03:7d:69:16:00:09:b0:ab:09:47:3d:a0:00:98:54:c5:2a:
         ce:f1:78:53:71:fa:b1:32:5c:58:10:da:9f:47:1c:44:d2:db:
         dd:a3:b8:93:94:8b:f4:63:ca:3a:87:5a:ab:9a:b0:1e:0f:58:
         39:e2:ac:4c:02:22:f0:61:fd:2c:1b:5f:a9:2a:3b:c9:45:e0:
         c5:42:77:cc:a3:62:c5:0f:d8:6d:70:f9:60:d2:ad:cb:ae:b0:
         f2:4e:c2:4d:7b:f9:dc:1a:88:49:77:37:45:fe:7c:f9:0a:61:
         12:7b:dc:12:b6:4b:14:39:6f:d3:1f:4f:6b:ec:59:6c:9d:7d:
         bb:c3:c6:14:2a:80:fd:74:c6:eb:cf:39:15:ec:b7:98:30:7d:
         a0:f1:fd:36:37:ed:a3:ea:ee:a5:f8:3f:dd:f2:4a:d0:6b:59:
         e5:1b:05:89:3e:68:0b:cd:14:f2:4c:e9:e7:b5:20:ab:7c:69:
         34:23:b4:c8:69:44:f9:6b:d5:48:93:74:12:cb:91:0b:b2:a8:
         5b:c0:21:ee:c5:e0:c6:2b:08:64:47:69:af:d2:32:cc:82:6f:
         5e:6b:88:e4:3d:6d:ed:29:82:b9:9d:68:d4:43:65:31:fe:32:
         d0:19:ee:d3:37:0a:9e:23:2c:45:8d:10:90:bc:8b:e2:ab:48:
         33:df:23:13
-----BEGIN CERTIFICATE-----
MIIDZzCCAk+gAwIBAgIBDDANBgkqhkiG9w0BAQsFADCBrTELMAkGA1UEBhMCVVMx
EzARBgNVBAgMCkNhbGlmb3JuaWExFDASBgNVBAcMC0xvcyBBbmdlbGVzMRUwEwYD
VQQKDAxEaWdpQ2VydCBJbmMxGTAXBgNVBAsMEHd3dy5kaWdpY2VydC5jb20xIDAe
BgNVBAMMF0RpZ2lDZXJ0IEdsb2JhbCBSb290IENBMR8wHQYJKoZIhvcNAQkBFhB3
d3cuZGlnaWNlcnQuY29tMB4XDTI0MDMyNjA5NTc1MVoXDTM0MDMyNDA5NTc1MVow
gaQxCzAJBgNVBAYTAlVTMRMwEQYDVQQIDApDYWxpZm9ybmlhMRQwEgYDVQQHDAtM
b3MgQW5nZWxlczEVMBMGA1UECgwMRGlnaUNlcnQgSW5jMRkwFwYDVQQLDBB3d3cu
ZGlnaWNlcnQuY29tMRcwFQYDVQQDDA5zMy5tZWl0dWFuLm5ldDEfMB0GCSqGSIb3
DQEJARYQd3d3LmRpZ2ljZXJ0LmNvbTCBnzANBgkqhkiG9w0BAQEFAAOBjQAwgYkC
gYEAuq1MCRo8hU9g1ZO8nhL0mxbni9IoKav5OJnhhDobcG6gW63zTmVcGftWiRb7
aDZDGju2Mk1jQ7DFEGk9lhN/quR01LNgqq9bx1b24UlV2ZK6cDdzTJFrzBCOWPLi
Gxsecj7Gu6XKCNi7I7u/hgLeEenZeW1gpsYMLOM1cvF2v7UCAwEAAaMdMBswGQYD
VR0RBBIwEIIOczMubWVpdHVhbi5uZXQwDQYJKoZIhvcNAQELBQADggEBALEDfWkW
AAmwqwlHPaAAmFTFKs7xeFNx+rEyXFgQ2p9HHETS292juJOUi/RjyjqHWquasB4P
WDnirEwCIvBh/SwbX6kqO8lF4MVCd8yjYsUP2G1w+WDSrcuusPJOwk17+dwaiEl3
N0X+fPkKYRJ73BK2SxQ5b9MfT2vsWWydfbvDxhQqgP10xuvPORXst5gwfaDx/TY3
7aPq7qX4P93yStBrWeUbBYk+aAvNFPJM6ee1IKt8aTQjtMhpRPlr1UiTdBLLkQuy
qFvAIe7F4MYrCGRHaa/SMsyCb15riOQ9be0pgrmdaNRDZTH+MtAZ7tM3Cp4jLEWN
EJC8i+KrSDPfIxM=
-----END CERTIFICATE-----
