Certificate:
    Data:
        Version: 3 (0x2)
        Serial Number: 27 (0x1b)
        Signature Algorithm: sha256WithRSAEncryption
        Issuer: C=US, ST=California, L=Los Angeles, O=DigiCert Inc, OU=www.digicert.com, CN=DigiCert Global Root CA/emailAddress=www.digicert.com
        Validity
            Not Before: Mar 26 09:57:57 2024 GMT
            Not After : Mar 24 09:57:57 2034 GMT
        Subject: C=US, ST=California, L=Los Angeles, O=DigiCert Inc, OU=www.digicert.com, CN=s3plus.meituan.net/emailAddress=www.digicert.com
        Subject Public Key Info:
            Public Key Algorithm: rsaEncryption
                RSA Public-Key: (1024 bit)
                Modulus:
                    00:ba:ad:4c:09:1a:3c:85:4f:60:d5:93:bc:9e:12:
                    f4:9b:16:e7:8b:d2:28:29:ab:f9:38:99:e1:84:3a:
                    1b:70:6e:a0:5b:ad:f3:4e:65:5c:19:fb:56:89:16:
                    fb:68:36:43:1a:3b:b6:32:4d:63:43:b0:c5:10:69:
                    3d:96:13:7f:aa:e4:74:d4:b3:60:aa:af:5b:c7:56:
                    f6:e1:49:55:d9:92:ba:70:37:73:4c:91:6b:cc:10:
                    8e:58:f2:e2:1b:1b:1e:72:3e:c6:bb:a5:ca:08:d8:
                    bb:23:bb:bf:86:02:de:11:e9:d9:79:6d:60:a6:c6:
                    0c:2c:e3:35:72:f1:76:bf:b5
                Exponent: 65537 (0x10001)
        X509v3 extensions:
            X509v3 Subject Alternative Name: 
                DNS:s3plus.meituan.net
    Signature Algorithm: sha256WithRSAEncryption
         a2:36:89:5f:5a:94:5d:79:42:d7:c8:00:dd:ba:9c:15:90:7a:
         26:6a:e4:45:b4:2d:66:71:80:19:99:d9:f0:82:00:a0:22:06:
         20:61:9a:9b:a4:a4:9e:c1:ca:fe:66:0c:bf:48:aa:37:45:6f:
         f8:71:30:e4:86:b0:3c:09:dd:98:c5:ce:35:51:c5:48:ac:fa:
         0b:f7:58:37:5e:b1:39:f2:76:2e:f6:3a:30:f1:fa:c7:50:37:
         74:ac:47:99:d2:df:66:54:c0:6b:c5:a5:bf:cf:8f:ce:71:d5:
         38:8e:47:e6:3e:31:92:2c:48:ae:5c:08:b0:9f:86:4d:f9:39:
         81:be:27:1d:f9:e0:f4:95:11:b4:b8:03:6a:2a:61:88:e7:eb:
         61:78:70:66:ad:a7:be:5e:8a:46:29:06:56:a3:ee:f2:26:a3:
         77:78:be:3d:67:21:7b:91:55:a5:3e:41:b1:2c:a2:a6:f8:cc:
         7d:6f:8b:b0:db:1e:ec:66:f0:d9:77:ad:f4:f0:49:58:77:92:
         46:88:78:1f:f8:12:59:43:be:f0:08:ef:39:f8:6c:89:82:70:
         63:80:58:00:94:c8:71:9f:17:78:64:dc:8e:7c:ff:14:73:7c:
         b9:88:50:f4:5d:8b:4b:6c:f6:21:9e:b3:a3:86:dd:ca:5e:30:
         43:2c:80:cc
-----BEGIN CERTIFICATE-----
MIIDbzCCAlegAwIBAgIBGzANBgkqhkiG9w0BAQsFADCBrTELMAkGA1UEBhMCVVMx
EzARBgNVBAgMCkNhbGlmb3JuaWExFDASBgNVBAcMC0xvcyBBbmdlbGVzMRUwEwYD
VQQKDAxEaWdpQ2VydCBJbmMxGTAXBgNVBAsMEHd3dy5kaWdpY2VydC5jb20xIDAe
BgNVBAMMF0RpZ2lDZXJ0IEdsb2JhbCBSb290IENBMR8wHQYJKoZIhvcNAQkBFhB3
d3cuZGlnaWNlcnQuY29tMB4XDTI0MDMyNjA5NTc1N1oXDTM0MDMyNDA5NTc1N1ow
gagxCzAJBgNVBAYTAlVTMRMwEQYDVQQIDApDYWxpZm9ybmlhMRQwEgYDVQQHDAtM
b3MgQW5nZWxlczEVMBMGA1UECgwMRGlnaUNlcnQgSW5jMRkwFwYDVQQLDBB3d3cu
ZGlnaWNlcnQuY29tMRswGQYDVQQDDBJzM3BsdXMubWVpdHVhbi5uZXQxHzAdBgkq
hkiG9w0BCQEWEHd3dy5kaWdpY2VydC5jb20wgZ8wDQYJKoZIhvcNAQEBBQADgY0A
MIGJAoGBALqtTAkaPIVPYNWTvJ4S9JsW54vSKCmr+TiZ4YQ6G3BuoFut805lXBn7
VokW+2g2Qxo7tjJNY0OwxRBpPZYTf6rkdNSzYKqvW8dW9uFJVdmSunA3c0yRa8wQ
jljy4hsbHnI+xrulygjYuyO7v4YC3hHp2XltYKbGDCzjNXLxdr+1AgMBAAGjITAf
MB0GA1UdEQQWMBSCEnMzcGx1cy5tZWl0dWFuLm5ldDANBgkqhkiG9w0BAQsFAAOC
AQEAojaJX1qUXXlC18gA3bqcFZB6JmrkRbQtZnGAGZnZ8IIAoCIGIGGam6SknsHK
/mYMv0iqN0Vv+HEw5IawPAndmMXONVHFSKz6C/dYN16xOfJ2LvY6MPH6x1A3dKxH
mdLfZlTAa8Wlv8+PznHVOI5H5j4xkixIrlwIsJ+GTfk5gb4nHfng9JURtLgDaiph
iOfrYXhwZq2nvl6KRikGVqPu8iajd3i+PWche5FVpT5BsSyipvjMfW+LsNse7Gbw
2Xet9PBJWHeSRoh4H/gSWUO+8AjvOfhsiYJwY4BYAJTIcZ8XeGTcjnz/FHN8uYhQ
9F2LS2z2IZ6zo4bdyl4wQyyAzA==
-----END CERTIFICATE-----
