Certificate:
    Data:
        Version: 3 (0x2)
        Serial Number: 16 (0x10)
        Signature Algorithm: sha256WithRSAEncryption
        Issuer: C=US, ST=California, L=Los Angeles, O=DigiCert Inc, OU=www.digicert.com, CN=DigiCert Global Root CA/emailAddress=www.digicert.com
        Validity
            Not Before: Mar 21 06:20:01 2024 GMT
            Not After : Mar 19 06:20:01 2034 GMT
        Subject: C=US, ST=California, L=Los Angeles, O=DigiCert Inc, OU=www.digicert.com, CN=settings-win.data.microsoft.com/emailAddress=www.digicert.com
        Subject Public Key Info:
            Public Key Algorithm: rsaEncryption
                RSA Public-Key: (1024 bit)
                Modulus:
                    00:ba:ad:4c:09:1a:3c:85:4f:60:d5:93:bc:9e:12:
                    f4:9b:16:e7:8b:d2:28:29:ab:f9:38:99:e1:84:3a:
                    1b:70:6e:a0:5b:ad:f3:4e:65:5c:19:fb:56:89:16:
                    fb:68:36:43:1a:3b:b6:32:4d:63:43:b0:c5:10:69:
                    3d:96:13:7f:aa:e4:74:d4:b3:60:aa:af:5b:c7:56:
                    f6:e1:49:55:d9:92:ba:70:37:73:4c:91:6b:cc:10:
                    8e:58:f2:e2:1b:1b:1e:72:3e:c6:bb:a5:ca:08:d8:
                    bb:23:bb:bf:86:02:de:11:e9:d9:79:6d:60:a6:c6:
                    0c:2c:e3:35:72:f1:76:bf:b5
                Exponent: 65537 (0x10001)
        X509v3 extensions:
            X509v3 Subject Alternative Name: 
                DNS:settings-win.data.microsoft.com
    Signature Algorithm: sha256WithRSAEncryption
         a0:91:51:85:a5:af:01:08:2b:3d:e5:f0:75:1e:26:e2:af:78:
         f3:a5:93:07:92:45:52:3d:81:d1:1e:a6:00:7c:d1:f7:16:47:
         99:28:43:65:11:fd:02:0b:20:0a:45:3c:53:21:d8:df:ff:12:
         9f:2b:5e:2a:c0:e9:39:24:80:59:5d:5f:30:10:20:4d:67:ea:
         07:1b:84:3f:69:ac:90:63:21:2f:96:1a:9c:76:31:b5:42:53:
         0a:a7:02:31:e1:48:0d:fa:36:01:07:27:92:69:f8:4c:e3:66:
         78:fb:eb:4c:de:73:2e:aa:52:78:97:b0:5c:dc:c5:33:ae:b8:
         ae:85:d6:fb:91:90:a6:81:b8:ef:66:1f:eb:cd:30:6c:f2:19:
         33:0b:06:92:dc:ee:b9:3d:b4:d1:70:ae:46:71:6e:e2:c6:e1:
         62:5c:ef:fb:9c:d1:f8:b1:f4:26:c7:b1:b5:3b:33:98:b6:65:
         ff:a7:00:08:c6:64:27:c2:54:f5:bb:8c:a7:58:42:e3:9e:15:
         6b:f3:1c:ec:8a:35:3a:56:b9:7d:10:a0:67:c3:d5:4d:2d:88:
         cb:58:3c:00:04:68:c5:c3:cf:1c:25:c6:1a:e4:bc:c4:0d:7a:
         2c:01:5d:60:97:b8:6e:7b:4f:4b:22:e2:ee:af:7b:f0:81:cc:
         6b:e5:5b:10
-----BEGIN CERTIFICATE-----
MIIDiTCCAnGgAwIBAgIBEDANBgkqhkiG9w0BAQsFADCBrTELMAkGA1UEBhMCVVMx
EzARBgNVBAgMCkNhbGlmb3JuaWExFDASBgNVBAcMC0xvcyBBbmdlbGVzMRUwEwYD
VQQKDAxEaWdpQ2VydCBJbmMxGTAXBgNVBAsMEHd3dy5kaWdpY2VydC5jb20xIDAe
BgNVBAMMF0RpZ2lDZXJ0IEdsb2JhbCBSb290IENBMR8wHQYJKoZIhvcNAQkBFhB3
d3cuZGlnaWNlcnQuY29tMB4XDTI0MDMyMTA2MjAwMVoXDTM0MDMxOTA2MjAwMVow
gbUxCzAJBgNVBAYTAlVTMRMwEQYDVQQIDApDYWxpZm9ybmlhMRQwEgYDVQQHDAtM
b3MgQW5nZWxlczEVMBMGA1UECgwMRGlnaUNlcnQgSW5jMRkwFwYDVQQLDBB3d3cu
ZGlnaWNlcnQuY29tMSgwJgYDVQQDDB9zZXR0aW5ncy13aW4uZGF0YS5taWNyb3Nv
ZnQuY29tMR8wHQYJKoZIhvcNAQkBFhB3d3cuZGlnaWNlcnQuY29tMIGfMA0GCSqG
SIb3DQEBAQUAA4GNADCBiQKBgQC6rUwJGjyFT2DVk7yeEvSbFueL0igpq/k4meGE
OhtwbqBbrfNOZVwZ+1aJFvtoNkMaO7YyTWNDsMUQaT2WE3+q5HTUs2Cqr1vHVvbh
SVXZkrpwN3NMkWvMEI5Y8uIbGx5yPsa7pcoI2Lsju7+GAt4R6dl5bWCmxgws4zVy
8Xa/tQIDAQABoy4wLDAqBgNVHREEIzAhgh9zZXR0aW5ncy13aW4uZGF0YS5taWNy
b3NvZnQuY29tMA0GCSqGSIb3DQEBCwUAA4IBAQCgkVGFpa8BCCs95fB1Hibir3jz
pZMHkkVSPYHRHqYAfNH3FkeZKENlEf0CCyAKRTxTIdjf/xKfK14qwOk5JIBZXV8w
ECBNZ+oHG4Q/aayQYyEvlhqcdjG1QlMKpwIx4UgN+jYBByeSafhM42Z4++tM3nMu
qlJ4l7Bc3MUzrriuhdb7kZCmgbjvZh/rzTBs8hkzCwaS3O65PbTRcK5GcW7ixuFi
XO/7nNH4sfQmx7G1OzOYtmX/pwAIxmQnwlT1u4ynWELjnhVr8xzsijU6Vrl9EKBn
w9VNLYjLWDwABGjFw88cJcYa5LzEDXosAV1gl7hue09LIuLur3vwgcxr5VsQ
-----END CERTIFICATE-----
