Certificate:
    Data:
        Version: 3 (0x2)
        Serial Number: 33 (0x21)
        Signature Algorithm: sha256WithRSAEncryption
        Issuer: C=US, ST=California, L=Los Angeles, O=DigiCert Inc, OU=www.digicert.com, CN=DigiCert Global Root CA/emailAddress=www.digicert.com
        Validity
            Not Before: Mar 26 09:58:18 2024 GMT
            Not After : Mar 24 09:58:18 2034 GMT
        Subject: C=US, ST=California, L=Los Angeles, O=DigiCert Inc, OU=www.digicert.com, CN=sh-wpush.waimai.meituan.com/emailAddress=www.digicert.com
        Subject Public Key Info:
            Public Key Algorithm: rsaEncryption
                RSA Public-Key: (1024 bit)
                Modulus:
                    00:ba:ad:4c:09:1a:3c:85:4f:60:d5:93:bc:9e:12:
                    f4:9b:16:e7:8b:d2:28:29:ab:f9:38:99:e1:84:3a:
                    1b:70:6e:a0:5b:ad:f3:4e:65:5c:19:fb:56:89:16:
                    fb:68:36:43:1a:3b:b6:32:4d:63:43:b0:c5:10:69:
                    3d:96:13:7f:aa:e4:74:d4:b3:60:aa:af:5b:c7:56:
                    f6:e1:49:55:d9:92:ba:70:37:73:4c:91:6b:cc:10:
                    8e:58:f2:e2:1b:1b:1e:72:3e:c6:bb:a5:ca:08:d8:
                    bb:23:bb:bf:86:02:de:11:e9:d9:79:6d:60:a6:c6:
                    0c:2c:e3:35:72:f1:76:bf:b5
                Exponent: 65537 (0x10001)
        X509v3 extensions:
            X509v3 Subject Alternative Name: 
                DNS:sh-wpush.waimai.meituan.com
    Signature Algorithm: sha256WithRSAEncryption
         37:d9:44:7c:cd:1b:28:49:b7:fe:16:39:96:06:77:fd:f9:c5:
         cc:1a:f8:28:fd:0c:ad:3f:9d:5c:a8:b3:ed:87:b3:8b:97:c3:
         81:3f:cb:97:a2:ea:59:ae:5a:93:8e:66:48:85:8e:fb:05:39:
         27:a3:c3:fe:1c:d1:a1:40:c0:3e:7c:0a:0e:80:86:09:97:29:
         9d:19:c1:f5:11:3a:bb:36:57:4b:55:36:73:0b:0b:9b:99:bd:
         f2:d1:38:c9:1b:f4:e6:b1:15:4f:ce:68:92:ce:85:c0:4c:82:
         04:71:93:88:8f:fc:87:3d:a7:63:84:41:23:5c:48:7c:32:c7:
         ce:98:12:a2:74:45:27:a4:12:d7:98:5a:21:51:0e:1d:ac:e6:
         9e:0d:9d:1b:4a:eb:a4:d8:45:2e:6f:d6:9c:de:b5:4c:6a:0d:
         07:06:e7:89:71:20:e4:21:79:71:16:52:c6:81:28:13:48:71:
         9f:8c:2f:b8:31:bf:2a:87:b5:e0:ad:27:59:cb:68:cf:2d:1f:
         e9:fa:31:73:ec:33:24:ab:ef:28:66:94:89:b4:63:9e:da:2e:
         6e:86:51:e7:a0:37:66:68:ed:d5:44:ea:c7:b4:3c:ae:13:6c:
         b7:9a:8b:e3:94:dc:1c:37:3d:08:bd:20:74:6a:88:8d:3c:a4:
         2a:42:fc:5a
-----BEGIN CERTIFICATE-----
MIIDgTCCAmmgAwIBAgIBITANBgkqhkiG9w0BAQsFADCBrTELMAkGA1UEBhMCVVMx
EzARBgNVBAgMCkNhbGlmb3JuaWExFDASBgNVBAcMC0xvcyBBbmdlbGVzMRUwEwYD
VQQKDAxEaWdpQ2VydCBJbmMxGTAXBgNVBAsMEHd3dy5kaWdpY2VydC5jb20xIDAe
BgNVBAMMF0RpZ2lDZXJ0IEdsb2JhbCBSb290IENBMR8wHQYJKoZIhvcNAQkBFhB3
d3cuZGlnaWNlcnQuY29tMB4XDTI0MDMyNjA5NTgxOFoXDTM0MDMyNDA5NTgxOFow
gbExCzAJBgNVBAYTAlVTMRMwEQYDVQQIDApDYWxpZm9ybmlhMRQwEgYDVQQHDAtM
b3MgQW5nZWxlczEVMBMGA1UECgwMRGlnaUNlcnQgSW5jMRkwFwYDVQQLDBB3d3cu
ZGlnaWNlcnQuY29tMSQwIgYDVQQDDBtzaC13cHVzaC53YWltYWkubWVpdHVhbi5j
b20xHzAdBgkqhkiG9w0BCQEWEHd3dy5kaWdpY2VydC5jb20wgZ8wDQYJKoZIhvcN
AQEBBQADgY0AMIGJAoGBALqtTAkaPIVPYNWTvJ4S9JsW54vSKCmr+TiZ4YQ6G3Bu
oFut805lXBn7VokW+2g2Qxo7tjJNY0OwxRBpPZYTf6rkdNSzYKqvW8dW9uFJVdmS
unA3c0yRa8wQjljy4hsbHnI+xrulygjYuyO7v4YC3hHp2XltYKbGDCzjNXLxdr+1
AgMBAAGjKjAoMCYGA1UdEQQfMB2CG3NoLXdwdXNoLndhaW1haS5tZWl0dWFuLmNv
bTANBgkqhkiG9w0BAQsFAAOCAQEAN9lEfM0bKEm3/hY5lgZ3/fnFzBr4KP0MrT+d
XKiz7Yezi5fDgT/Ll6LqWa5ak45mSIWO+wU5J6PD/hzRoUDAPnwKDoCGCZcpnRnB
9RE6uzZXS1U2cwsLm5m98tE4yRv05rEVT85oks6FwEyCBHGTiI/8hz2nY4RBI1xI
fDLHzpgSonRFJ6QS15haIVEOHazmng2dG0rrpNhFLm/WnN61TGoNBwbniXEg5CF5
cRZSxoEoE0hxn4wvuDG/Koe14K0nWctozy0f6foxc+wzJKvvKGaUibRjntouboZR
56A3Zmjt1UTqx7Q8rhNst5qL45TcHDc9CL0gdGqIjTykKkL8Wg==
-----END CERTIFICATE-----
