Certificate:
    Data:
        Version: 3 (0x2)
        Serial Number: 21 (0x15)
        Signature Algorithm: sha256WithRSAEncryption
        Issuer: C=US, ST=California, L=Los Angeles, O=DigiCert Inc, OU=www.digicert.com, CN=DigiCert Global Root CA/emailAddress=www.digicert.com
        Validity
            Not Before: Mar 21 08:57:47 2024 GMT
            Not After : Mar 19 08:57:47 2034 GMT
        Subject: C=US, ST=California, L=Los Angeles, O=DigiCert Inc, OU=www.digicert.com, CN=shadow.elemecdn.com/emailAddress=www.digicert.com
        Subject Public Key Info:
            Public Key Algorithm: rsaEncryption
                RSA Public-Key: (1024 bit)
                Modulus:
                    00:ba:ad:4c:09:1a:3c:85:4f:60:d5:93:bc:9e:12:
                    f4:9b:16:e7:8b:d2:28:29:ab:f9:38:99:e1:84:3a:
                    1b:70:6e:a0:5b:ad:f3:4e:65:5c:19:fb:56:89:16:
                    fb:68:36:43:1a:3b:b6:32:4d:63:43:b0:c5:10:69:
                    3d:96:13:7f:aa:e4:74:d4:b3:60:aa:af:5b:c7:56:
                    f6:e1:49:55:d9:92:ba:70:37:73:4c:91:6b:cc:10:
                    8e:58:f2:e2:1b:1b:1e:72:3e:c6:bb:a5:ca:08:d8:
                    bb:23:bb:bf:86:02:de:11:e9:d9:79:6d:60:a6:c6:
                    0c:2c:e3:35:72:f1:76:bf:b5
                Exponent: 65537 (0x10001)
        X509v3 extensions:
            X509v3 Subject Alternative Name: 
                DNS:shadow.elemecdn.com
    Signature Algorithm: sha256WithRSAEncryption
         52:2a:fd:02:db:d5:4f:a1:c1:58:a1:a2:f1:95:6d:52:6a:44:
         72:71:c6:74:ab:b6:40:a7:8c:50:ab:42:49:34:14:39:dd:a2:
         15:68:1f:b4:c6:e9:2b:e0:4d:29:ef:e5:b5:78:12:26:b0:dc:
         44:32:83:ea:15:73:c7:80:5a:cb:10:b7:28:f6:1e:b2:0a:12:
         44:6e:6d:86:7b:84:df:c1:a5:db:f6:62:41:cd:cd:32:18:21:
         0e:6a:82:18:3d:fb:f9:89:d0:90:ac:21:fa:86:b5:cb:75:da:
         ad:87:26:64:b4:9b:7e:e1:c3:bb:3f:9a:9c:a3:79:55:32:c3:
         56:4d:b8:e3:a8:d1:6d:f2:69:35:fb:b2:10:7b:49:7c:5f:93:
         4a:a8:82:2f:58:31:a8:c1:d0:5e:07:7f:e1:f9:13:75:f4:3c:
         7e:d2:6a:01:60:9d:85:24:aa:4c:2b:63:8b:60:69:fa:f5:e0:
         54:b5:1e:8a:70:72:30:a0:ef:81:48:99:34:df:76:50:63:c2:
         64:dc:63:77:87:9f:0e:a8:74:8a:61:42:03:95:cb:92:9c:1e:
         34:14:be:84:a4:0d:28:d8:20:f9:1e:86:02:e5:c3:7d:4d:0d:
         b3:15:78:13:fc:ec:68:5f:b4:01:06:05:38:a9:fa:12:5c:f4:
         0c:f6:d2:e2
-----BEGIN CERTIFICATE-----
MIIDcTCCAlmgAwIBAgIBFTANBgkqhkiG9w0BAQsFADCBrTELMAkGA1UEBhMCVVMx
EzARBgNVBAgMCkNhbGlmb3JuaWExFDASBgNVBAcMC0xvcyBBbmdlbGVzMRUwEwYD
VQQKDAxEaWdpQ2VydCBJbmMxGTAXBgNVBAsMEHd3dy5kaWdpY2VydC5jb20xIDAe
BgNVBAMMF0RpZ2lDZXJ0IEdsb2JhbCBSb290IENBMR8wHQYJKoZIhvcNAQkBFhB3
d3cuZGlnaWNlcnQuY29tMB4XDTI0MDMyMTA4NTc0N1oXDTM0MDMxOTA4NTc0N1ow
gakxCzAJBgNVBAYTAlVTMRMwEQYDVQQIDApDYWxpZm9ybmlhMRQwEgYDVQQHDAtM
b3MgQW5nZWxlczEVMBMGA1UECgwMRGlnaUNlcnQgSW5jMRkwFwYDVQQLDBB3d3cu
ZGlnaWNlcnQuY29tMRwwGgYDVQQDDBNzaGFkb3cuZWxlbWVjZG4uY29tMR8wHQYJ
KoZIhvcNAQkBFhB3d3cuZGlnaWNlcnQuY29tMIGfMA0GCSqGSIb3DQEBAQUAA4GN
ADCBiQKBgQC6rUwJGjyFT2DVk7yeEvSbFueL0igpq/k4meGEOhtwbqBbrfNOZVwZ
+1aJFvtoNkMaO7YyTWNDsMUQaT2WE3+q5HTUs2Cqr1vHVvbhSVXZkrpwN3NMkWvM
EI5Y8uIbGx5yPsa7pcoI2Lsju7+GAt4R6dl5bWCmxgws4zVy8Xa/tQIDAQABoyIw
IDAeBgNVHREEFzAVghNzaGFkb3cuZWxlbWVjZG4uY29tMA0GCSqGSIb3DQEBCwUA
A4IBAQBSKv0C29VPocFYoaLxlW1SakRyccZ0q7ZAp4xQq0JJNBQ53aIVaB+0xukr
4E0p7+W1eBImsNxEMoPqFXPHgFrLELco9h6yChJEbm2Ge4TfwaXb9mJBzc0yGCEO
aoIYPfv5idCQrCH6hrXLddqthyZktJt+4cO7P5qco3lVMsNWTbjjqNFt8mk1+7IQ
e0l8X5NKqIIvWDGowdBeB3/h+RN19Dx+0moBYJ2FJKpMK2OLYGn69eBUtR6KcHIw
oO+BSJk033ZQY8Jk3GN3h58OqHSKYUIDlcuSnB40FL6EpA0o2CD5HoYC5cN9TQ2z
FXgT/OxoX7QBBgU4qfoSXPQM9tLi
-----END CERTIFICATE-----
