Certificate:
    Data:
        Version: 3 (0x2)
        Serial Number: 28 (0x1c)
        Signature Algorithm: sha256WithRSAEncryption
        Issuer: C=US, ST=California, L=Los Angeles, O=DigiCert Inc, OU=www.digicert.com, CN=DigiCert Global Root CA/emailAddress=www.digicert.com
        Validity
            Not Before: Mar 26 09:57:57 2024 GMT
            Not After : Mar 24 09:57:57 2034 GMT
        Subject: C=US, ST=California, L=Los Angeles, O=DigiCert Inc, OU=www.digicert.com, CN=shangou.meituan.net/emailAddress=www.digicert.com
        Subject Public Key Info:
            Public Key Algorithm: rsaEncryption
                RSA Public-Key: (1024 bit)
                Modulus:
                    00:ba:ad:4c:09:1a:3c:85:4f:60:d5:93:bc:9e:12:
                    f4:9b:16:e7:8b:d2:28:29:ab:f9:38:99:e1:84:3a:
                    1b:70:6e:a0:5b:ad:f3:4e:65:5c:19:fb:56:89:16:
                    fb:68:36:43:1a:3b:b6:32:4d:63:43:b0:c5:10:69:
                    3d:96:13:7f:aa:e4:74:d4:b3:60:aa:af:5b:c7:56:
                    f6:e1:49:55:d9:92:ba:70:37:73:4c:91:6b:cc:10:
                    8e:58:f2:e2:1b:1b:1e:72:3e:c6:bb:a5:ca:08:d8:
                    bb:23:bb:bf:86:02:de:11:e9:d9:79:6d:60:a6:c6:
                    0c:2c:e3:35:72:f1:76:bf:b5
                Exponent: 65537 (0x10001)
        X509v3 extensions:
            X509v3 Subject Alternative Name: 
                DNS:shangou.meituan.net
    Signature Algorithm: sha256WithRSAEncryption
         8b:98:37:aa:6e:c3:aa:b5:5b:7d:d2:d7:9f:32:a5:73:3e:4c:
         ac:71:79:bd:b8:b1:97:be:a6:d1:ee:a5:f3:56:62:0b:70:05:
         18:a8:89:e1:d6:5f:d9:37:c4:f1:e7:c2:54:48:bc:68:c0:26:
         8f:07:e6:b6:68:33:6b:9f:b2:65:3f:65:a6:d7:e4:fd:bd:87:
         87:0a:9d:54:37:f5:64:1b:45:47:c0:3f:ee:fb:11:6e:bb:93:
         05:f8:c0:25:8d:c5:36:e4:33:04:af:01:49:b8:64:26:a7:0a:
         13:85:6d:11:61:d4:16:82:2f:58:4c:30:7b:7e:51:d0:d1:56:
         7a:26:6f:88:e8:8e:86:ff:e4:7a:f3:8d:78:7e:05:1d:50:46:
         0f:9d:25:ce:35:af:b8:27:a1:1e:d5:99:bc:f3:04:c3:8e:1f:
         2b:7f:2c:fe:c3:6b:d7:5b:56:f6:c1:78:3c:10:40:da:62:5a:
         6d:36:a7:9e:5d:9a:35:fa:0b:7f:ef:c5:ca:29:15:a6:01:ec:
         a8:68:48:8a:48:c6:b9:71:62:b9:01:e6:2e:1d:7f:83:f2:02:
         38:fb:a2:98:ac:6d:1d:cb:c5:a6:de:1b:6c:c4:7d:40:c3:70:
         40:c3:33:85:a3:30:43:b3:f2:0c:05:e1:1c:14:2b:88:a5:b8:
         47:14:42:ee
-----BEGIN CERTIFICATE-----
MIIDcTCCAlmgAwIBAgIBHDANBgkqhkiG9w0BAQsFADCBrTELMAkGA1UEBhMCVVMx
EzARBgNVBAgMCkNhbGlmb3JuaWExFDASBgNVBAcMC0xvcyBBbmdlbGVzMRUwEwYD
VQQKDAxEaWdpQ2VydCBJbmMxGTAXBgNVBAsMEHd3dy5kaWdpY2VydC5jb20xIDAe
BgNVBAMMF0RpZ2lDZXJ0IEdsb2JhbCBSb290IENBMR8wHQYJKoZIhvcNAQkBFhB3
d3cuZGlnaWNlcnQuY29tMB4XDTI0MDMyNjA5NTc1N1oXDTM0MDMyNDA5NTc1N1ow
gakxCzAJBgNVBAYTAlVTMRMwEQYDVQQIDApDYWxpZm9ybmlhMRQwEgYDVQQHDAtM
b3MgQW5nZWxlczEVMBMGA1UECgwMRGlnaUNlcnQgSW5jMRkwFwYDVQQLDBB3d3cu
ZGlnaWNlcnQuY29tMRwwGgYDVQQDDBNzaGFuZ291Lm1laXR1YW4ubmV0MR8wHQYJ
KoZIhvcNAQkBFhB3d3cuZGlnaWNlcnQuY29tMIGfMA0GCSqGSIb3DQEBAQUAA4GN
ADCBiQKBgQC6rUwJGjyFT2DVk7yeEvSbFueL0igpq/k4meGEOhtwbqBbrfNOZVwZ
+1aJFvtoNkMaO7YyTWNDsMUQaT2WE3+q5HTUs2Cqr1vHVvbhSVXZkrpwN3NMkWvM
EI5Y8uIbGx5yPsa7pcoI2Lsju7+GAt4R6dl5bWCmxgws4zVy8Xa/tQIDAQABoyIw
IDAeBgNVHREEFzAVghNzaGFuZ291Lm1laXR1YW4ubmV0MA0GCSqGSIb3DQEBCwUA
A4IBAQCLmDeqbsOqtVt90tefMqVzPkyscXm9uLGXvqbR7qXzVmILcAUYqInh1l/Z
N8Tx58JUSLxowCaPB+a2aDNrn7JlP2Wm1+T9vYeHCp1UN/VkG0VHwD/u+xFuu5MF
+MAljcU25DMErwFJuGQmpwoThW0RYdQWgi9YTDB7flHQ0VZ6Jm+I6I6G/+R68414
fgUdUEYPnSXONa+4J6Ee1Zm88wTDjh8rfyz+w2vXW1b2wXg8EEDaYlptNqeeXZo1
+gt/78XKKRWmAeyoaEiKSMa5cWK5AeYuHX+D8gI4+6KYrG0dy8Wm3htsxH1Aw3BA
wzOFozBDs/IMBeEcFCuIpbhHFELu
-----END CERTIFICATE-----
