Certificate:
    Data:
        Version: 3 (0x2)
        Serial Number: 24 (0x18)
        Signature Algorithm: sha256WithRSAEncryption
        Issuer: C=US, ST=California, L=Los Angeles, O=DigiCert Inc, OU=www.digicert.com, CN=DigiCert Global Root CA/emailAddress=www.digicert.com
        Validity
            Not Before: Mar 21 08:58:31 2024 GMT
            Not After : Mar 19 08:58:31 2034 GMT
        Subject: C=US, ST=California, L=Los Angeles, O=DigiCert Inc, OU=www.digicert.com, CN=sofire.baidu.com/emailAddress=www.digicert.com
        Subject Public Key Info:
            Public Key Algorithm: rsaEncryption
                RSA Public-Key: (1024 bit)
                Modulus:
                    00:ba:ad:4c:09:1a:3c:85:4f:60:d5:93:bc:9e:12:
                    f4:9b:16:e7:8b:d2:28:29:ab:f9:38:99:e1:84:3a:
                    1b:70:6e:a0:5b:ad:f3:4e:65:5c:19:fb:56:89:16:
                    fb:68:36:43:1a:3b:b6:32:4d:63:43:b0:c5:10:69:
                    3d:96:13:7f:aa:e4:74:d4:b3:60:aa:af:5b:c7:56:
                    f6:e1:49:55:d9:92:ba:70:37:73:4c:91:6b:cc:10:
                    8e:58:f2:e2:1b:1b:1e:72:3e:c6:bb:a5:ca:08:d8:
                    bb:23:bb:bf:86:02:de:11:e9:d9:79:6d:60:a6:c6:
                    0c:2c:e3:35:72:f1:76:bf:b5
                Exponent: 65537 (0x10001)
        X509v3 extensions:
            X509v3 Subject Alternative Name: 
                DNS:sofire.baidu.com
    Signature Algorithm: sha256WithRSAEncryption
         3b:eb:a0:bc:ed:56:5a:41:c2:55:9d:ce:39:73:01:34:b4:2e:
         5e:1a:bc:56:b9:87:49:12:7f:f6:6e:2b:b5:e0:2b:c9:3a:f3:
         ad:7a:25:09:19:89:a4:18:a4:b5:97:80:e8:4b:ee:c9:e4:e0:
         67:51:50:9a:ea:13:df:9f:ce:8e:e0:7a:75:b5:ba:b3:20:e7:
         b1:00:47:2e:a8:f8:8a:07:fc:6e:0f:98:e4:6d:46:9b:ec:a9:
         ca:55:ae:ba:11:d8:0b:b4:78:8d:f0:f7:25:5e:4b:49:28:2c:
         b4:46:07:24:73:f6:00:32:f4:b0:7e:ec:01:5c:e9:dc:6b:68:
         0f:1c:ec:49:fa:26:87:57:ba:51:e9:02:e8:c7:56:fd:e8:51:
         c6:dd:35:00:80:bf:7d:c2:0f:76:32:37:88:3c:f8:87:57:40:
         50:cb:67:0f:cc:b4:34:3b:5a:15:1b:47:66:d1:89:8b:e7:cd:
         70:fa:58:9e:1e:1a:ba:f0:20:47:db:02:d6:fd:5d:b1:b7:c5:
         7f:09:fd:98:f5:e2:77:2b:a6:6b:f1:f0:11:3c:1d:ec:f5:73:
         75:05:11:f3:5b:20:c2:ae:63:43:53:8b:23:8b:51:b4:1b:1e:
         a4:94:8d:8a:f1:4a:d2:cd:00:54:39:fa:13:2b:10:34:d6:4f:
         11:d6:02:40
-----BEGIN CERTIFICATE-----
MIIDazCCAlOgAwIBAgIBGDANBgkqhkiG9w0BAQsFADCBrTELMAkGA1UEBhMCVVMx
EzARBgNVBAgMCkNhbGlmb3JuaWExFDASBgNVBAcMC0xvcyBBbmdlbGVzMRUwEwYD
VQQKDAxEaWdpQ2VydCBJbmMxGTAXBgNVBAsMEHd3dy5kaWdpY2VydC5jb20xIDAe
BgNVBAMMF0RpZ2lDZXJ0IEdsb2JhbCBSb290IENBMR8wHQYJKoZIhvcNAQkBFhB3
d3cuZGlnaWNlcnQuY29tMB4XDTI0MDMyMTA4NTgzMVoXDTM0MDMxOTA4NTgzMVow
gaYxCzAJBgNVBAYTAlVTMRMwEQYDVQQIDApDYWxpZm9ybmlhMRQwEgYDVQQHDAtM
b3MgQW5nZWxlczEVMBMGA1UECgwMRGlnaUNlcnQgSW5jMRkwFwYDVQQLDBB3d3cu
ZGlnaWNlcnQuY29tMRkwFwYDVQQDDBBzb2ZpcmUuYmFpZHUuY29tMR8wHQYJKoZI
hvcNAQkBFhB3d3cuZGlnaWNlcnQuY29tMIGfMA0GCSqGSIb3DQEBAQUAA4GNADCB
iQKBgQC6rUwJGjyFT2DVk7yeEvSbFueL0igpq/k4meGEOhtwbqBbrfNOZVwZ+1aJ
FvtoNkMaO7YyTWNDsMUQaT2WE3+q5HTUs2Cqr1vHVvbhSVXZkrpwN3NMkWvMEI5Y
8uIbGx5yPsa7pcoI2Lsju7+GAt4R6dl5bWCmxgws4zVy8Xa/tQIDAQABox8wHTAb
BgNVHREEFDASghBzb2ZpcmUuYmFpZHUuY29tMA0GCSqGSIb3DQEBCwUAA4IBAQA7
66C87VZaQcJVnc45cwE0tC5eGrxWuYdJEn/2biu14CvJOvOteiUJGYmkGKS1l4Do
S+7J5OBnUVCa6hPfn86O4Hp1tbqzIOexAEcuqPiKB/xuD5jkbUab7KnKVa66EdgL
tHiN8PclXktJKCy0Rgckc/YAMvSwfuwBXOnca2gPHOxJ+iaHV7pR6QLox1b96FHG
3TUAgL99wg92MjeIPPiHV0BQy2cPzLQ0O1oVG0dm0YmL581w+lieHhq68CBH2wLW
/V2xt8V/Cf2Y9eJ3K6Zr8fARPB3s9XN1BRHzWyDCrmNDU4sji1G0Gx6klI2K8UrS
zQBUOfoTKxA01k8R1gJA
-----END CERTIFICATE-----
