Certificate:
    Data:
        Version: 3 (0x2)
        Serial Number: 64 (0x40)
        Signature Algorithm: sha256WithRSAEncryption
        Issuer: C=US, ST=California, L=Los Angeles, O=DigiCert Inc, OU=www.digicert.com, CN=DigiCert Global Root CA/emailAddress=www.digicert.com
        Validity
            Not Before: Mar 21 09:08:24 2024 GMT
            Not After : Mar 19 09:08:24 2034 GMT
        Subject: C=US, ST=California, L=Los Angeles, O=DigiCert Inc, OU=www.digicert.com, CN=sp0.baidu.com/emailAddress=www.digicert.com
        Subject Public Key Info:
            Public Key Algorithm: rsaEncryption
                RSA Public-Key: (1024 bit)
                Modulus:
                    00:ba:ad:4c:09:1a:3c:85:4f:60:d5:93:bc:9e:12:
                    f4:9b:16:e7:8b:d2:28:29:ab:f9:38:99:e1:84:3a:
                    1b:70:6e:a0:5b:ad:f3:4e:65:5c:19:fb:56:89:16:
                    fb:68:36:43:1a:3b:b6:32:4d:63:43:b0:c5:10:69:
                    3d:96:13:7f:aa:e4:74:d4:b3:60:aa:af:5b:c7:56:
                    f6:e1:49:55:d9:92:ba:70:37:73:4c:91:6b:cc:10:
                    8e:58:f2:e2:1b:1b:1e:72:3e:c6:bb:a5:ca:08:d8:
                    bb:23:bb:bf:86:02:de:11:e9:d9:79:6d:60:a6:c6:
                    0c:2c:e3:35:72:f1:76:bf:b5
                Exponent: 65537 (0x10001)
        X509v3 extensions:
            X509v3 Subject Alternative Name: 
                DNS:sp0.baidu.com
    Signature Algorithm: sha256WithRSAEncryption
         16:2a:bd:7b:b4:eb:75:c3:84:92:8c:43:4d:4f:1b:cf:17:95:
         92:76:87:6a:74:13:dd:29:58:58:f0:7e:85:dc:8f:db:16:cb:
         c6:c1:2f:28:f6:23:92:38:68:db:3f:d2:27:0e:b3:37:20:c2:
         6c:8f:cb:b1:6f:7c:46:07:e4:3a:27:b5:60:2b:3b:80:51:27:
         8b:56:57:be:c1:3d:c4:4f:05:2c:6c:d9:36:4b:8e:4a:e9:e0:
         43:b9:2a:31:97:99:9c:0a:73:ac:14:aa:45:ae:2d:f6:9a:b9:
         75:a6:73:97:59:8f:f5:d4:de:43:b7:8e:8f:67:a1:4a:1c:a6:
         30:54:1a:1f:f8:9d:22:c3:00:25:d6:c3:e5:2f:66:db:df:95:
         68:33:9d:ce:73:78:73:cf:03:31:02:e0:ad:4a:c7:e5:c9:93:
         ec:0d:02:f3:ae:f7:97:79:77:43:26:30:8a:bd:c3:d9:f3:42:
         73:d9:97:a0:59:9f:10:48:37:70:41:48:8c:6d:7b:70:18:e2:
         3b:8b:cd:81:85:3d:68:45:9c:2c:70:0f:2d:ce:1d:75:c3:35:
         f0:cd:45:4c:85:8c:e0:49:63:76:9b:d9:f6:ec:4c:cd:5d:ad:
         53:80:f3:0a:12:41:13:ee:b4:e9:10:c2:00:6f:09:a6:04:77:
         32:14:34:55
-----BEGIN CERTIFICATE-----
MIIDZTCCAk2gAwIBAgIBQDANBgkqhkiG9w0BAQsFADCBrTELMAkGA1UEBhMCVVMx
EzARBgNVBAgMCkNhbGlmb3JuaWExFDASBgNVBAcMC0xvcyBBbmdlbGVzMRUwEwYD
VQQKDAxEaWdpQ2VydCBJbmMxGTAXBgNVBAsMEHd3dy5kaWdpY2VydC5jb20xIDAe
BgNVBAMMF0RpZ2lDZXJ0IEdsb2JhbCBSb290IENBMR8wHQYJKoZIhvcNAQkBFhB3
d3cuZGlnaWNlcnQuY29tMB4XDTI0MDMyMTA5MDgyNFoXDTM0MDMxOTA5MDgyNFow
gaMxCzAJBgNVBAYTAlVTMRMwEQYDVQQIDApDYWxpZm9ybmlhMRQwEgYDVQQHDAtM
b3MgQW5nZWxlczEVMBMGA1UECgwMRGlnaUNlcnQgSW5jMRkwFwYDVQQLDBB3d3cu
ZGlnaWNlcnQuY29tMRYwFAYDVQQDDA1zcDAuYmFpZHUuY29tMR8wHQYJKoZIhvcN
AQkBFhB3d3cuZGlnaWNlcnQuY29tMIGfMA0GCSqGSIb3DQEBAQUAA4GNADCBiQKB
gQC6rUwJGjyFT2DVk7yeEvSbFueL0igpq/k4meGEOhtwbqBbrfNOZVwZ+1aJFvto
NkMaO7YyTWNDsMUQaT2WE3+q5HTUs2Cqr1vHVvbhSVXZkrpwN3NMkWvMEI5Y8uIb
Gx5yPsa7pcoI2Lsju7+GAt4R6dl5bWCmxgws4zVy8Xa/tQIDAQABoxwwGjAYBgNV
HREEETAPgg1zcDAuYmFpZHUuY29tMA0GCSqGSIb3DQEBCwUAA4IBAQAWKr17tOt1
w4SSjENNTxvPF5WSdodqdBPdKVhY8H6F3I/bFsvGwS8o9iOSOGjbP9InDrM3IMJs
j8uxb3xGB+Q6J7VgKzuAUSeLVle+wT3ETwUsbNk2S45K6eBDuSoxl5mcCnOsFKpF
ri32mrl1pnOXWY/11N5Dt46PZ6FKHKYwVBof+J0iwwAl1sPlL2bb35VoM53Oc3hz
zwMxAuCtSsflyZPsDQLzrveXeXdDJjCKvcPZ80Jz2ZegWZ8QSDdwQUiMbXtwGOI7
i82BhT1oRZwscA8tzh11wzXwzUVMhYzgSWN2m9n27EzNXa1TgPMKEkET7rTpEMIA
bwmmBHcyFDRV
-----END CERTIFICATE-----
