Certificate:
    Data:
        Version: 3 (0x2)
        Serial Number: 48 (0x30)
        Signature Algorithm: sha256WithRSAEncryption
        Issuer: C=US, ST=California, L=Los Angeles, O=DigiCert Inc, OU=www.digicert.com, CN=DigiCert Global Root CA/emailAddress=www.digicert.com
        Validity
            Not Before: Mar 21 09:08:17 2024 GMT
            Not After : Mar 19 09:08:17 2034 GMT
        Subject: C=US, ST=California, L=Los Angeles, O=DigiCert Inc, OU=www.digicert.com, CN=static.zhihu.com/emailAddress=www.digicert.com
        Subject Public Key Info:
            Public Key Algorithm: rsaEncryption
                RSA Public-Key: (1024 bit)
                Modulus:
                    00:ba:ad:4c:09:1a:3c:85:4f:60:d5:93:bc:9e:12:
                    f4:9b:16:e7:8b:d2:28:29:ab:f9:38:99:e1:84:3a:
                    1b:70:6e:a0:5b:ad:f3:4e:65:5c:19:fb:56:89:16:
                    fb:68:36:43:1a:3b:b6:32:4d:63:43:b0:c5:10:69:
                    3d:96:13:7f:aa:e4:74:d4:b3:60:aa:af:5b:c7:56:
                    f6:e1:49:55:d9:92:ba:70:37:73:4c:91:6b:cc:10:
                    8e:58:f2:e2:1b:1b:1e:72:3e:c6:bb:a5:ca:08:d8:
                    bb:23:bb:bf:86:02:de:11:e9:d9:79:6d:60:a6:c6:
                    0c:2c:e3:35:72:f1:76:bf:b5
                Exponent: 65537 (0x10001)
        X509v3 extensions:
            X509v3 Subject Alternative Name: 
                DNS:static.zhihu.com
    Signature Algorithm: sha256WithRSAEncryption
         35:57:f0:ad:92:f1:6e:d9:f6:0d:d8:9e:fe:4d:c5:b9:f8:d6:
         3e:a5:e2:60:23:6e:52:cc:7f:c3:cc:f9:ea:71:f9:6f:cb:cd:
         97:c4:9f:0f:db:b3:52:5c:b9:f4:5a:a8:13:26:6b:d8:6f:b0:
         63:0e:e6:20:d1:f8:3e:51:60:7c:57:69:be:4d:ea:7d:08:08:
         58:0e:40:3c:9b:20:2a:08:9d:56:d5:ac:bb:cd:ed:e2:8f:c6:
         8e:41:bb:0b:c5:bd:f6:31:b6:d3:7a:8b:f8:16:59:6b:46:60:
         6e:10:e1:49:c8:9f:8b:2b:8b:3c:d6:99:d2:22:29:7a:5a:43:
         5a:08:70:21:cb:82:e9:d2:55:ce:8d:39:9a:c7:43:00:15:48:
         1d:7f:14:1d:c1:97:60:24:d8:21:06:d5:6c:6e:76:a3:83:fb:
         2f:4d:83:51:3e:d1:aa:5f:f6:3f:04:88:30:2b:65:ac:8f:1b:
         fd:ee:8f:83:f3:1a:69:d7:78:69:4c:6d:25:e5:1d:23:c8:c9:
         8f:e7:bc:86:1f:f9:a2:90:47:b6:fa:2c:90:31:77:cc:ba:1a:
         c1:60:9c:4b:cf:fe:76:58:bd:fe:76:3c:6b:a0:0c:90:e5:92:
         1a:2e:ae:b0:8b:8f:0b:69:94:7d:1a:b1:44:e3:3a:df:f9:0a:
         dc:a4:6d:37
-----BEGIN CERTIFICATE-----
MIIDazCCAlOgAwIBAgIBMDANBgkqhkiG9w0BAQsFADCBrTELMAkGA1UEBhMCVVMx
EzARBgNVBAgMCkNhbGlmb3JuaWExFDASBgNVBAcMC0xvcyBBbmdlbGVzMRUwEwYD
VQQKDAxEaWdpQ2VydCBJbmMxGTAXBgNVBAsMEHd3dy5kaWdpY2VydC5jb20xIDAe
BgNVBAMMF0RpZ2lDZXJ0IEdsb2JhbCBSb290IENBMR8wHQYJKoZIhvcNAQkBFhB3
d3cuZGlnaWNlcnQuY29tMB4XDTI0MDMyMTA5MDgxN1oXDTM0MDMxOTA5MDgxN1ow
gaYxCzAJBgNVBAYTAlVTMRMwEQYDVQQIDApDYWxpZm9ybmlhMRQwEgYDVQQHDAtM
b3MgQW5nZWxlczEVMBMGA1UECgwMRGlnaUNlcnQgSW5jMRkwFwYDVQQLDBB3d3cu
ZGlnaWNlcnQuY29tMRkwFwYDVQQDDBBzdGF0aWMuemhpaHUuY29tMR8wHQYJKoZI
hvcNAQkBFhB3d3cuZGlnaWNlcnQuY29tMIGfMA0GCSqGSIb3DQEBAQUAA4GNADCB
iQKBgQC6rUwJGjyFT2DVk7yeEvSbFueL0igpq/k4meGEOhtwbqBbrfNOZVwZ+1aJ
FvtoNkMaO7YyTWNDsMUQaT2WE3+q5HTUs2Cqr1vHVvbhSVXZkrpwN3NMkWvMEI5Y
8uIbGx5yPsa7pcoI2Lsju7+GAt4R6dl5bWCmxgws4zVy8Xa/tQIDAQABox8wHTAb
BgNVHREEFDASghBzdGF0aWMuemhpaHUuY29tMA0GCSqGSIb3DQEBCwUAA4IBAQA1
V/CtkvFu2fYN2J7+TcW5+NY+peJgI25SzH/DzPnqcflvy82XxJ8P27NSXLn0WqgT
JmvYb7BjDuYg0fg+UWB8V2m+Tep9CAhYDkA8myAqCJ1W1ay7ze3ij8aOQbsLxb32
MbbTeov4FllrRmBuEOFJyJ+LK4s81pnSIil6WkNaCHAhy4Lp0lXOjTmax0MAFUgd
fxQdwZdgJNghBtVsbnajg/svTYNRPtGqX/Y/BIgwK2Wsjxv97o+D8xpp13hpTG0l
5R0jyMmP57yGH/mikEe2+iyQMXfMuhrBYJxLz/52WL3+djxroAyQ5ZIaLq6wi48L
aZR9GrFE4zrf+QrcpG03
-----END CERTIFICATE-----
