Certificate:
    Data:
        Version: 3 (0x2)
        Serial Number: 62 (0x3e)
        Signature Algorithm: sha256WithRSAEncryption
        Issuer: C=US, ST=California, L=Los Angeles, O=DigiCert Inc, OU=www.digicert.com, CN=DigiCert Global Root CA/emailAddress=www.digicert.com
        Validity
            Not Before: Mar 21 09:08:24 2024 GMT
            Not After : Mar 19 09:08:24 2034 GMT
        Subject: C=US, ST=California, L=Los Angeles, O=DigiCert Inc, OU=www.digicert.com, CN=sugar.zhihu.com/emailAddress=www.digicert.com
        Subject Public Key Info:
            Public Key Algorithm: rsaEncryption
                RSA Public-Key: (1024 bit)
                Modulus:
                    00:ba:ad:4c:09:1a:3c:85:4f:60:d5:93:bc:9e:12:
                    f4:9b:16:e7:8b:d2:28:29:ab:f9:38:99:e1:84:3a:
                    1b:70:6e:a0:5b:ad:f3:4e:65:5c:19:fb:56:89:16:
                    fb:68:36:43:1a:3b:b6:32:4d:63:43:b0:c5:10:69:
                    3d:96:13:7f:aa:e4:74:d4:b3:60:aa:af:5b:c7:56:
                    f6:e1:49:55:d9:92:ba:70:37:73:4c:91:6b:cc:10:
                    8e:58:f2:e2:1b:1b:1e:72:3e:c6:bb:a5:ca:08:d8:
                    bb:23:bb:bf:86:02:de:11:e9:d9:79:6d:60:a6:c6:
                    0c:2c:e3:35:72:f1:76:bf:b5
                Exponent: 65537 (0x10001)
        X509v3 extensions:
            X509v3 Subject Alternative Name: 
                DNS:sugar.zhihu.com
    Signature Algorithm: sha256WithRSAEncryption
         c5:17:46:0c:e5:1e:f6:8d:c0:1e:28:9f:d5:6c:b2:58:79:e6:
         97:e9:73:7a:85:e6:c8:9b:3d:40:cc:3a:ab:cc:63:38:df:29:
         33:18:f2:ce:11:ca:f7:c6:23:0a:2d:f7:f0:33:58:39:b5:a2:
         ad:6f:be:56:b1:c7:f7:f0:ae:40:bd:13:f3:28:a3:08:c3:c4:
         21:ee:92:fc:67:e6:f9:5e:0d:6c:d0:eb:94:41:9e:ea:13:a0:
         ab:9d:6a:b1:2a:e1:eb:af:c2:fa:cc:93:cf:62:c7:07:f6:e7:
         2e:27:b0:84:b9:8a:b3:35:0d:7a:e7:8f:16:6b:20:43:f0:c0:
         b8:90:91:24:bf:e2:e6:d9:ae:25:44:cd:23:cf:67:91:2a:22:
         83:8c:de:0c:5d:f7:b2:67:2f:00:e7:98:85:42:01:e9:d1:b5:
         a9:ce:51:a1:37:5c:d1:75:f1:03:af:41:56:b1:35:5e:fd:41:
         1f:6a:aa:3f:ba:eb:7b:29:e7:49:9e:c6:6e:e2:e0:e0:1e:52:
         79:a8:b0:ee:31:4c:b9:9b:cc:16:2e:fe:b0:b2:88:c0:1d:1c:
         e8:40:e9:75:dd:e7:79:56:47:bc:31:39:6f:a1:a3:40:af:fd:
         c7:ef:c3:0e:d5:18:eb:1f:2d:8a:ae:fa:5e:2d:f6:b5:fd:c6:
         7d:a3:16:43
-----BEGIN CERTIFICATE-----
MIIDaTCCAlGgAwIBAgIBPjANBgkqhkiG9w0BAQsFADCBrTELMAkGA1UEBhMCVVMx
EzARBgNVBAgMCkNhbGlmb3JuaWExFDASBgNVBAcMC0xvcyBBbmdlbGVzMRUwEwYD
VQQKDAxEaWdpQ2VydCBJbmMxGTAXBgNVBAsMEHd3dy5kaWdpY2VydC5jb20xIDAe
BgNVBAMMF0RpZ2lDZXJ0IEdsb2JhbCBSb290IENBMR8wHQYJKoZIhvcNAQkBFhB3
d3cuZGlnaWNlcnQuY29tMB4XDTI0MDMyMTA5MDgyNFoXDTM0MDMxOTA5MDgyNFow
gaUxCzAJBgNVBAYTAlVTMRMwEQYDVQQIDApDYWxpZm9ybmlhMRQwEgYDVQQHDAtM
b3MgQW5nZWxlczEVMBMGA1UECgwMRGlnaUNlcnQgSW5jMRkwFwYDVQQLDBB3d3cu
ZGlnaWNlcnQuY29tMRgwFgYDVQQDDA9zdWdhci56aGlodS5jb20xHzAdBgkqhkiG
9w0BCQEWEHd3dy5kaWdpY2VydC5jb20wgZ8wDQYJKoZIhvcNAQEBBQADgY0AMIGJ
AoGBALqtTAkaPIVPYNWTvJ4S9JsW54vSKCmr+TiZ4YQ6G3BuoFut805lXBn7VokW
+2g2Qxo7tjJNY0OwxRBpPZYTf6rkdNSzYKqvW8dW9uFJVdmSunA3c0yRa8wQjljy
4hsbHnI+xrulygjYuyO7v4YC3hHp2XltYKbGDCzjNXLxdr+1AgMBAAGjHjAcMBoG
A1UdEQQTMBGCD3N1Z2FyLnpoaWh1LmNvbTANBgkqhkiG9w0BAQsFAAOCAQEAxRdG
DOUe9o3AHiif1WyyWHnml+lzeoXmyJs9QMw6q8xjON8pMxjyzhHK98YjCi338DNY
ObWirW++VrHH9/CuQL0T8yijCMPEIe6S/Gfm+V4NbNDrlEGe6hOgq51qsSrh66/C
+syTz2LHB/bnLiewhLmKszUNeuePFmsgQ/DAuJCRJL/i5tmuJUTNI89nkSoig4ze
DF33smcvAOeYhUIB6dG1qc5RoTdc0XXxA69BVrE1Xv1BH2qqP7rreynnSZ7GbuLg
4B5Seaiw7jFMuZvMFi7+sLKIwB0c6EDpdd3neVZHvDE5b6GjQK/9x+/DDtUY6x8t
iq76Xi32tf3GfaMWQw==
-----END CERTIFICATE-----
