Certificate:
    Data:
        Version: 3 (0x2)
        Serial Number: 34 (0x22)
        Signature Algorithm: sha256WithRSAEncryption
        Issuer: C=US, ST=California, L=Los Angeles, O=DigiCert Inc, OU=www.digicert.com, CN=DigiCert Global Root CA/emailAddress=www.digicert.com
        Validity
            Not Before: Mar 21 09:05:44 2024 GMT
            Not After : Mar 19 09:05:44 2034 GMT
        Subject: C=US, ST=California, L=Los Angeles, O=DigiCert Inc, OU=www.digicert.com, CN=update.googleapis.com/emailAddress=www.digicert.com
        Subject Public Key Info:
            Public Key Algorithm: rsaEncryption
                RSA Public-Key: (1024 bit)
                Modulus:
                    00:ba:ad:4c:09:1a:3c:85:4f:60:d5:93:bc:9e:12:
                    f4:9b:16:e7:8b:d2:28:29:ab:f9:38:99:e1:84:3a:
                    1b:70:6e:a0:5b:ad:f3:4e:65:5c:19:fb:56:89:16:
                    fb:68:36:43:1a:3b:b6:32:4d:63:43:b0:c5:10:69:
                    3d:96:13:7f:aa:e4:74:d4:b3:60:aa:af:5b:c7:56:
                    f6:e1:49:55:d9:92:ba:70:37:73:4c:91:6b:cc:10:
                    8e:58:f2:e2:1b:1b:1e:72:3e:c6:bb:a5:ca:08:d8:
                    bb:23:bb:bf:86:02:de:11:e9:d9:79:6d:60:a6:c6:
                    0c:2c:e3:35:72:f1:76:bf:b5
                Exponent: 65537 (0x10001)
        X509v3 extensions:
            X509v3 Subject Alternative Name: 
                DNS:update.googleapis.com
    Signature Algorithm: sha256WithRSAEncryption
         28:b2:9c:b3:d7:fe:8b:9e:08:be:b9:8e:e4:d4:6e:69:f2:bb:
         0a:45:ac:62:e6:03:80:5e:61:ba:c8:e9:95:25:ca:9d:bd:59:
         3c:4b:bf:66:a5:e7:16:a4:3f:b7:5d:ff:b2:56:99:27:43:41:
         69:d4:14:f5:59:39:fa:9f:f8:0b:29:a4:5a:0e:d0:75:b5:2e:
         d4:85:63:84:fe:46:f2:ec:35:e3:96:08:2e:30:9c:8e:22:cb:
         0f:4a:bb:d2:53:e2:49:8a:bf:de:ad:41:a1:0d:38:05:e3:b6:
         b9:b2:bb:05:e4:eb:da:bb:8f:6c:dc:8f:a1:e0:1b:4f:16:f0:
         e6:50:1b:10:26:a5:1c:f0:0a:84:c0:35:6d:d7:dd:1c:75:ed:
         20:25:4a:de:35:14:bb:49:b9:ea:fc:f0:a7:7a:83:6a:37:57:
         bb:62:72:ef:bf:cf:e6:ef:64:f6:c8:0c:d2:ed:5e:47:84:10:
         20:fb:d5:62:97:b2:50:10:b5:87:71:41:5f:d0:27:be:f6:af:
         ff:03:12:1a:12:f5:53:72:e5:97:1d:4c:30:6e:d5:93:fd:ef:
         51:a3:5f:23:8d:a0:3a:cf:6b:c4:26:41:0c:fd:46:bd:e9:1f:
         36:1d:1b:dc:7d:87:c0:94:12:88:85:3f:f9:47:cd:f6:99:f3:
         08:54:14:a4
-----BEGIN CERTIFICATE-----
MIIDdTCCAl2gAwIBAgIBIjANBgkqhkiG9w0BAQsFADCBrTELMAkGA1UEBhMCVVMx
EzARBgNVBAgMCkNhbGlmb3JuaWExFDASBgNVBAcMC0xvcyBBbmdlbGVzMRUwEwYD
VQQKDAxEaWdpQ2VydCBJbmMxGTAXBgNVBAsMEHd3dy5kaWdpY2VydC5jb20xIDAe
BgNVBAMMF0RpZ2lDZXJ0IEdsb2JhbCBSb290IENBMR8wHQYJKoZIhvcNAQkBFhB3
d3cuZGlnaWNlcnQuY29tMB4XDTI0MDMyMTA5MDU0NFoXDTM0MDMxOTA5MDU0NFow
gasxCzAJBgNVBAYTAlVTMRMwEQYDVQQIDApDYWxpZm9ybmlhMRQwEgYDVQQHDAtM
b3MgQW5nZWxlczEVMBMGA1UECgwMRGlnaUNlcnQgSW5jMRkwFwYDVQQLDBB3d3cu
ZGlnaWNlcnQuY29tMR4wHAYDVQQDDBV1cGRhdGUuZ29vZ2xlYXBpcy5jb20xHzAd
BgkqhkiG9w0BCQEWEHd3dy5kaWdpY2VydC5jb20wgZ8wDQYJKoZIhvcNAQEBBQAD
gY0AMIGJAoGBALqtTAkaPIVPYNWTvJ4S9JsW54vSKCmr+TiZ4YQ6G3BuoFut805l
XBn7VokW+2g2Qxo7tjJNY0OwxRBpPZYTf6rkdNSzYKqvW8dW9uFJVdmSunA3c0yR
a8wQjljy4hsbHnI+xrulygjYuyO7v4YC3hHp2XltYKbGDCzjNXLxdr+1AgMBAAGj
JDAiMCAGA1UdEQQZMBeCFXVwZGF0ZS5nb29nbGVhcGlzLmNvbTANBgkqhkiG9w0B
AQsFAAOCAQEAKLKcs9f+i54IvrmO5NRuafK7CkWsYuYDgF5husjplSXKnb1ZPEu/
ZqXnFqQ/t13/slaZJ0NBadQU9Vk5+p/4CymkWg7QdbUu1IVjhP5G8uw145YILjCc
jiLLD0q70lPiSYq/3q1BoQ04BeO2ubK7BeTr2ruPbNyPoeAbTxbw5lAbECalHPAK
hMA1bdfdHHXtICVK3jUUu0m56vzwp3qDajdXu2Jy77/P5u9k9sgM0u1eR4QQIPvV
YpeyUBC1h3FBX9Anvvav/wMSGhL1U3Lllx1MMG7Vk/3vUaNfI42gOs9rxCZBDP1G
vekfNh0b3H2HwJQSiIU/+UfN9pnzCFQUpA==
-----END CERTIFICATE-----
