Certificate:
    Data:
        Version: 3 (0x2)
        Serial Number: 31 (0x1f)
        Signature Algorithm: sha256WithRSAEncryption
        Issuer: C=US, ST=California, L=Los Angeles, O=DigiCert Inc, OU=www.digicert.com, CN=DigiCert Global Root CA/emailAddress=www.digicert.com
        Validity
            Not Before: Mar 21 09:01:13 2024 GMT
            Not After : Mar 19 09:01:13 2034 GMT
        Subject: C=US, ST=California, L=Los Angeles, O=DigiCert Inc, OU=www.digicert.com, CN=v10.events.data.microsoft.com/emailAddress=www.digicert.com
        Subject Public Key Info:
            Public Key Algorithm: rsaEncryption
                RSA Public-Key: (1024 bit)
                Modulus:
                    00:ba:ad:4c:09:1a:3c:85:4f:60:d5:93:bc:9e:12:
                    f4:9b:16:e7:8b:d2:28:29:ab:f9:38:99:e1:84:3a:
                    1b:70:6e:a0:5b:ad:f3:4e:65:5c:19:fb:56:89:16:
                    fb:68:36:43:1a:3b:b6:32:4d:63:43:b0:c5:10:69:
                    3d:96:13:7f:aa:e4:74:d4:b3:60:aa:af:5b:c7:56:
                    f6:e1:49:55:d9:92:ba:70:37:73:4c:91:6b:cc:10:
                    8e:58:f2:e2:1b:1b:1e:72:3e:c6:bb:a5:ca:08:d8:
                    bb:23:bb:bf:86:02:de:11:e9:d9:79:6d:60:a6:c6:
                    0c:2c:e3:35:72:f1:76:bf:b5
                Exponent: 65537 (0x10001)
        X509v3 extensions:
            X509v3 Subject Alternative Name: 
                DNS:v10.events.data.microsoft.com
    Signature Algorithm: sha256WithRSAEncryption
         52:6a:87:cf:17:21:8e:a2:36:cd:c9:5d:75:c6:5c:fc:1a:2d:
         4c:5e:d4:31:fe:fd:1b:73:bb:81:c0:f8:f0:e1:06:fd:8f:04:
         71:c9:60:c1:e9:3c:3a:a5:c6:f6:be:3f:e5:29:95:03:58:a9:
         d7:ce:52:83:9b:ae:81:4d:48:d7:8a:48:c4:6a:6a:f0:40:1e:
         2d:a2:e0:ec:bd:63:8c:a7:80:fb:9b:c4:d3:b7:9a:c6:9a:fb:
         40:e5:6a:16:38:6a:08:94:6e:15:54:f4:bf:85:2b:98:92:d4:
         de:00:b4:ef:5d:fa:10:45:36:b2:10:10:e2:02:85:1a:34:71:
         c6:eb:d0:f4:59:5c:69:f0:84:45:13:56:52:cc:e4:f8:cc:08:
         95:5a:08:4e:4d:06:47:15:1e:fe:27:49:ab:ab:7d:cf:8e:90:
         7f:41:b6:fc:da:d3:89:bb:a3:8c:9c:26:2c:7c:9e:f3:66:07:
         bf:c5:7a:07:14:de:1c:ff:ef:1a:2b:11:59:55:5a:4f:81:e4:
         62:fd:69:b5:94:ab:a1:65:16:34:0d:01:3a:30:95:98:44:34:
         41:3c:4f:38:42:93:8a:4c:78:a7:3f:2f:f5:fe:10:54:e2:26:
         ce:89:d2:9f:46:d8:d1:c2:c4:9e:7d:2c:11:94:a9:7c:18:12:
         15:5a:9f:bd
-----BEGIN CERTIFICATE-----
MIIDhTCCAm2gAwIBAgIBHzANBgkqhkiG9w0BAQsFADCBrTELMAkGA1UEBhMCVVMx
EzARBgNVBAgMCkNhbGlmb3JuaWExFDASBgNVBAcMC0xvcyBBbmdlbGVzMRUwEwYD
VQQKDAxEaWdpQ2VydCBJbmMxGTAXBgNVBAsMEHd3dy5kaWdpY2VydC5jb20xIDAe
BgNVBAMMF0RpZ2lDZXJ0IEdsb2JhbCBSb290IENBMR8wHQYJKoZIhvcNAQkBFhB3
d3cuZGlnaWNlcnQuY29tMB4XDTI0MDMyMTA5MDExM1oXDTM0MDMxOTA5MDExM1ow
gbMxCzAJBgNVBAYTAlVTMRMwEQYDVQQIDApDYWxpZm9ybmlhMRQwEgYDVQQHDAtM
b3MgQW5nZWxlczEVMBMGA1UECgwMRGlnaUNlcnQgSW5jMRkwFwYDVQQLDBB3d3cu
ZGlnaWNlcnQuY29tMSYwJAYDVQQDDB12MTAuZXZlbnRzLmRhdGEubWljcm9zb2Z0
LmNvbTEfMB0GCSqGSIb3DQEJARYQd3d3LmRpZ2ljZXJ0LmNvbTCBnzANBgkqhkiG
9w0BAQEFAAOBjQAwgYkCgYEAuq1MCRo8hU9g1ZO8nhL0mxbni9IoKav5OJnhhDob
cG6gW63zTmVcGftWiRb7aDZDGju2Mk1jQ7DFEGk9lhN/quR01LNgqq9bx1b24UlV
2ZK6cDdzTJFrzBCOWPLiGxsecj7Gu6XKCNi7I7u/hgLeEenZeW1gpsYMLOM1cvF2
v7UCAwEAAaMsMCowKAYDVR0RBCEwH4IddjEwLmV2ZW50cy5kYXRhLm1pY3Jvc29m
dC5jb20wDQYJKoZIhvcNAQELBQADggEBAFJqh88XIY6iNs3JXXXGXPwaLUxe1DH+
/Rtzu4HA+PDhBv2PBHHJYMHpPDqlxva+P+UplQNYqdfOUoObroFNSNeKSMRqavBA
Hi2i4Oy9Y4yngPubxNO3msaa+0DlahY4agiUbhVU9L+FK5iS1N4AtO9d+hBFNrIQ
EOIChRo0ccbr0PRZXGnwhEUTVlLM5PjMCJVaCE5NBkcVHv4nSaurfc+OkH9Btvza
04m7o4ycJix8nvNmB7/FegcU3hz/7xorEVlVWk+B5GL9abWUq6FlFjQNATowlZhE
NEE8TzhCk4pMeKc/L/X+EFTiJs6J0p9G2NHCxJ59LBGUqXwYEhVan70=
-----END CERTIFICATE-----
