Certificate:
    Data:
        Version: 3 (0x2)
        Serial Number: 23 (0x17)
        Signature Algorithm: sha256WithRSAEncryption
        Issuer: C=US, ST=California, L=Los Angeles, O=DigiCert Inc, OU=www.digicert.com, CN=DigiCert Global Root CA/emailAddress=www.digicert.com
        Validity
            Not Before: Mar 21 06:22:34 2024 GMT
            Not After : Mar 19 06:22:34 2034 GMT
        Subject: C=US, ST=California, L=Los Angeles, O=DigiCert Inc, OU=www.digicert.com, CN=v10.events.data.microsoft.com/emailAddress=www.digicert.com
        Subject Public Key Info:
            Public Key Algorithm: rsaEncryption
                RSA Public-Key: (1024 bit)
                Modulus:
                    00:ba:ad:4c:09:1a:3c:85:4f:60:d5:93:bc:9e:12:
                    f4:9b:16:e7:8b:d2:28:29:ab:f9:38:99:e1:84:3a:
                    1b:70:6e:a0:5b:ad:f3:4e:65:5c:19:fb:56:89:16:
                    fb:68:36:43:1a:3b:b6:32:4d:63:43:b0:c5:10:69:
                    3d:96:13:7f:aa:e4:74:d4:b3:60:aa:af:5b:c7:56:
                    f6:e1:49:55:d9:92:ba:70:37:73:4c:91:6b:cc:10:
                    8e:58:f2:e2:1b:1b:1e:72:3e:c6:bb:a5:ca:08:d8:
                    bb:23:bb:bf:86:02:de:11:e9:d9:79:6d:60:a6:c6:
                    0c:2c:e3:35:72:f1:76:bf:b5
                Exponent: 65537 (0x10001)
        X509v3 extensions:
            X509v3 Subject Alternative Name: 
                DNS:v10.events.data.microsoft.com
    Signature Algorithm: sha256WithRSAEncryption
         0a:bf:e8:eb:2e:98:3c:3a:82:45:23:86:11:60:65:6b:ec:4e:
         5b:33:a8:c2:40:d7:9a:90:db:cf:c7:4e:92:ce:a7:88:ef:9f:
         98:f0:a9:cb:7a:b4:6e:7c:72:e4:09:3b:9c:05:57:72:79:8a:
         36:38:de:7e:97:53:70:94:3e:b0:ed:36:2c:60:77:fc:7d:5e:
         2a:83:77:ee:15:f7:0e:5c:f5:33:3d:12:30:7a:4d:4a:42:4e:
         d9:8f:52:e4:7b:6f:aa:df:0c:98:88:ec:7a:9d:2c:82:19:c1:
         c3:26:a9:89:59:78:32:63:7c:68:59:f4:84:11:4e:ce:d6:38:
         5d:43:6b:8a:3b:8d:3e:78:09:ef:ed:08:66:78:8e:a1:39:61:
         58:ab:6a:e3:51:66:6f:b9:83:20:c2:6a:17:e7:a7:f5:cd:68:
         c6:2c:01:9e:53:85:1a:fe:7c:e0:12:ef:68:14:47:e3:7e:d6:
         22:50:6e:c7:a5:91:3e:91:4e:02:f3:22:d2:53:7a:cd:34:c9:
         b8:a4:1d:c2:d6:82:f5:fb:79:8b:3a:a3:d7:f8:54:23:52:c1:
         92:d5:ac:7e:8e:cc:8d:d3:51:36:7b:ca:49:9c:7e:8c:07:8b:
         62:39:f9:9d:fe:b5:1e:c4:cc:27:08:38:11:7f:ba:38:cb:de:
         a7:4c:2b:32
-----BEGIN CERTIFICATE-----
MIIDhTCCAm2gAwIBAgIBFzANBgkqhkiG9w0BAQsFADCBrTELMAkGA1UEBhMCVVMx
EzARBgNVBAgMCkNhbGlmb3JuaWExFDASBgNVBAcMC0xvcyBBbmdlbGVzMRUwEwYD
VQQKDAxEaWdpQ2VydCBJbmMxGTAXBgNVBAsMEHd3dy5kaWdpY2VydC5jb20xIDAe
BgNVBAMMF0RpZ2lDZXJ0IEdsb2JhbCBSb290IENBMR8wHQYJKoZIhvcNAQkBFhB3
d3cuZGlnaWNlcnQuY29tMB4XDTI0MDMyMTA2MjIzNFoXDTM0MDMxOTA2MjIzNFow
gbMxCzAJBgNVBAYTAlVTMRMwEQYDVQQIDApDYWxpZm9ybmlhMRQwEgYDVQQHDAtM
b3MgQW5nZWxlczEVMBMGA1UECgwMRGlnaUNlcnQgSW5jMRkwFwYDVQQLDBB3d3cu
ZGlnaWNlcnQuY29tMSYwJAYDVQQDDB12MTAuZXZlbnRzLmRhdGEubWljcm9zb2Z0
LmNvbTEfMB0GCSqGSIb3DQEJARYQd3d3LmRpZ2ljZXJ0LmNvbTCBnzANBgkqhkiG
9w0BAQEFAAOBjQAwgYkCgYEAuq1MCRo8hU9g1ZO8nhL0mxbni9IoKav5OJnhhDob
cG6gW63zTmVcGftWiRb7aDZDGju2Mk1jQ7DFEGk9lhN/quR01LNgqq9bx1b24UlV
2ZK6cDdzTJFrzBCOWPLiGxsecj7Gu6XKCNi7I7u/hgLeEenZeW1gpsYMLOM1cvF2
v7UCAwEAAaMsMCowKAYDVR0RBCEwH4IddjEwLmV2ZW50cy5kYXRhLm1pY3Jvc29m
dC5jb20wDQYJKoZIhvcNAQELBQADggEBAAq/6OsumDw6gkUjhhFgZWvsTlszqMJA
15qQ28/HTpLOp4jvn5jwqct6tG58cuQJO5wFV3J5ijY43n6XU3CUPrDtNixgd/x9
XiqDd+4V9w5c9TM9EjB6TUpCTtmPUuR7b6rfDJiI7HqdLIIZwcMmqYlZeDJjfGhZ
9IQRTs7WOF1Da4o7jT54Ce/tCGZ4jqE5YVirauNRZm+5gyDCahfnp/XNaMYsAZ5T
hRr+fOAS72gUR+N+1iJQbselkT6RTgLzItJTes00ybikHcLWgvX7eYs6o9f4VCNS
wZLVrH6OzI3TUTZ7ykmcfowHi2I5+Z3+tR7EzCcIOBF/ujjL3qdMKzI=
-----END CERTIFICATE-----
