Certificate:
    Data:
        Version: 3 (0x2)
        Serial Number: 26 (0x1a)
        Signature Algorithm: sha256WithRSAEncryption
        Issuer: C=US, ST=California, L=Los Angeles, O=DigiCert Inc, OU=www.digicert.com, CN=DigiCert Global Root CA/emailAddress=www.digicert.com
        Validity
            Not Before: Mar 21 06:27:27 2024 GMT
            Not After : Mar 19 06:27:27 2034 GMT
        Subject: C=US, ST=California, L=Los Angeles, O=DigiCert Inc, OU=www.digicert.com, CN=visualstudio-devdiv-c2s.msedge.net/emailAddress=www.digicert.com
        Subject Public Key Info:
            Public Key Algorithm: rsaEncryption
                RSA Public-Key: (1024 bit)
                Modulus:
                    00:ba:ad:4c:09:1a:3c:85:4f:60:d5:93:bc:9e:12:
                    f4:9b:16:e7:8b:d2:28:29:ab:f9:38:99:e1:84:3a:
                    1b:70:6e:a0:5b:ad:f3:4e:65:5c:19:fb:56:89:16:
                    fb:68:36:43:1a:3b:b6:32:4d:63:43:b0:c5:10:69:
                    3d:96:13:7f:aa:e4:74:d4:b3:60:aa:af:5b:c7:56:
                    f6:e1:49:55:d9:92:ba:70:37:73:4c:91:6b:cc:10:
                    8e:58:f2:e2:1b:1b:1e:72:3e:c6:bb:a5:ca:08:d8:
                    bb:23:bb:bf:86:02:de:11:e9:d9:79:6d:60:a6:c6:
                    0c:2c:e3:35:72:f1:76:bf:b5
                Exponent: 65537 (0x10001)
        X509v3 extensions:
            X509v3 Subject Alternative Name: 
                DNS:visualstudio-devdiv-c2s.msedge.net
    Signature Algorithm: sha256WithRSAEncryption
         4f:90:dc:a9:70:60:01:4c:4c:20:b7:ed:db:4c:67:05:e5:ce:
         7b:10:47:fb:93:5e:d6:cd:24:aa:e2:a8:1d:d9:56:3b:6a:b2:
         b8:b0:82:d2:c9:b4:e0:67:f4:4e:03:71:2f:fb:1f:db:08:b1:
         6b:e1:86:6e:46:8d:f4:92:9b:b2:30:03:31:54:2c:dd:14:61:
         7a:a9:ad:9b:d6:9d:0d:ae:16:cf:ad:e5:11:b3:f6:a6:b4:0c:
         83:55:e6:db:81:0f:49:41:2c:9d:a6:6c:95:99:1d:0b:06:e3:
         ef:51:2d:8e:48:7b:04:46:54:c6:cd:eb:7a:42:b2:df:38:5f:
         9b:46:80:2d:0c:f1:6a:a9:6d:c7:c6:b6:76:26:37:b4:b7:f0:
         d1:3c:f6:3f:88:11:5a:c1:59:c0:ec:d1:a4:47:12:89:d6:82:
         21:9e:c9:60:0d:58:f2:2d:e4:30:bc:b3:21:a6:57:cc:5f:9c:
         20:4d:68:47:6a:f9:a6:14:e1:c3:f9:75:53:31:55:ec:c2:31:
         ef:7e:c4:41:8d:a0:8f:c5:b6:e2:7c:bb:3b:35:96:5a:a1:b1:
         c1:48:d0:d3:d9:74:36:b2:76:b1:5d:16:8e:78:8e:a4:12:05:
         1f:72:90:71:3f:64:74:fa:1d:84:b7:fa:a5:28:7d:48:8f:5e:
         d6:ad:f5:68
-----BEGIN CERTIFICATE-----
MIIDjzCCAnegAwIBAgIBGjANBgkqhkiG9w0BAQsFADCBrTELMAkGA1UEBhMCVVMx
EzARBgNVBAgMCkNhbGlmb3JuaWExFDASBgNVBAcMC0xvcyBBbmdlbGVzMRUwEwYD
VQQKDAxEaWdpQ2VydCBJbmMxGTAXBgNVBAsMEHd3dy5kaWdpY2VydC5jb20xIDAe
BgNVBAMMF0RpZ2lDZXJ0IEdsb2JhbCBSb290IENBMR8wHQYJKoZIhvcNAQkBFhB3
d3cuZGlnaWNlcnQuY29tMB4XDTI0MDMyMTA2MjcyN1oXDTM0MDMxOTA2MjcyN1ow
gbgxCzAJBgNVBAYTAlVTMRMwEQYDVQQIDApDYWxpZm9ybmlhMRQwEgYDVQQHDAtM
b3MgQW5nZWxlczEVMBMGA1UECgwMRGlnaUNlcnQgSW5jMRkwFwYDVQQLDBB3d3cu
ZGlnaWNlcnQuY29tMSswKQYDVQQDDCJ2aXN1YWxzdHVkaW8tZGV2ZGl2LWMycy5t
c2VkZ2UubmV0MR8wHQYJKoZIhvcNAQkBFhB3d3cuZGlnaWNlcnQuY29tMIGfMA0G
CSqGSIb3DQEBAQUAA4GNADCBiQKBgQC6rUwJGjyFT2DVk7yeEvSbFueL0igpq/k4
meGEOhtwbqBbrfNOZVwZ+1aJFvtoNkMaO7YyTWNDsMUQaT2WE3+q5HTUs2Cqr1vH
VvbhSVXZkrpwN3NMkWvMEI5Y8uIbGx5yPsa7pcoI2Lsju7+GAt4R6dl5bWCmxgws
4zVy8Xa/tQIDAQABozEwLzAtBgNVHREEJjAkgiJ2aXN1YWxzdHVkaW8tZGV2ZGl2
LWMycy5tc2VkZ2UubmV0MA0GCSqGSIb3DQEBCwUAA4IBAQBPkNypcGABTEwgt+3b
TGcF5c57EEf7k17WzSSq4qgd2VY7arK4sILSybTgZ/ROA3Ev+x/bCLFr4YZuRo30
kpuyMAMxVCzdFGF6qa2b1p0NrhbPreURs/amtAyDVebbgQ9JQSydpmyVmR0LBuPv
US2OSHsERlTGzet6QrLfOF+bRoAtDPFqqW3HxrZ2Jje0t/DRPPY/iBFawVnA7NGk
RxKJ1oIhnslgDVjyLeQwvLMhplfMX5wgTWhHavmmFOHD+XVTMVXswjHvfsRBjaCP
xbbifLs7NZZaobHBSNDT2XQ2snaxXRaOeI6kEgUfcpBxP2R0+h2Et/qlKH1Ij17W
rfVo
-----END CERTIFICATE-----
