Certificate:
    Data:
        Version: 3 (0x2)
        Serial Number: 8 (0x8)
        Signature Algorithm: sha256WithRSAEncryption
        Issuer: C=US, ST=California, L=Los Angeles, O=DigiCert Inc, OU=www.digicert.com, CN=DigiCert Global Root CA/emailAddress=www.digicert.com
        Validity
            Not Before: Mar 26 09:57:47 2024 GMT
            Not After : Mar 24 09:57:47 2034 GMT
        Subject: C=US, ST=California, L=Los Angeles, O=DigiCert Inc, OU=www.digicert.com, CN=vortex.data.microsoft.com/emailAddress=www.digicert.com
        Subject Public Key Info:
            Public Key Algorithm: rsaEncryption
                RSA Public-Key: (1024 bit)
                Modulus:
                    00:ba:ad:4c:09:1a:3c:85:4f:60:d5:93:bc:9e:12:
                    f4:9b:16:e7:8b:d2:28:29:ab:f9:38:99:e1:84:3a:
                    1b:70:6e:a0:5b:ad:f3:4e:65:5c:19:fb:56:89:16:
                    fb:68:36:43:1a:3b:b6:32:4d:63:43:b0:c5:10:69:
                    3d:96:13:7f:aa:e4:74:d4:b3:60:aa:af:5b:c7:56:
                    f6:e1:49:55:d9:92:ba:70:37:73:4c:91:6b:cc:10:
                    8e:58:f2:e2:1b:1b:1e:72:3e:c6:bb:a5:ca:08:d8:
                    bb:23:bb:bf:86:02:de:11:e9:d9:79:6d:60:a6:c6:
                    0c:2c:e3:35:72:f1:76:bf:b5
                Exponent: 65537 (0x10001)
        X509v3 extensions:
            X509v3 Subject Alternative Name: 
                DNS:vortex.data.microsoft.com
    Signature Algorithm: sha256WithRSAEncryption
         95:3a:02:18:27:58:4f:a7:11:73:ad:fb:e3:ca:97:dc:87:93:
         93:eb:eb:08:ad:de:6a:45:1e:94:5d:28:06:fc:ac:28:4d:9f:
         f4:b7:4a:9d:33:67:5e:8c:3d:17:74:33:52:49:05:a8:3b:5d:
         1a:87:e4:90:36:e4:bc:e4:ee:31:63:9c:81:b1:32:76:4a:bf:
         06:6c:2e:fb:88:fd:7f:86:46:60:0a:f7:5f:c9:b9:56:92:17:
         08:2b:3c:d9:d5:d8:65:4a:7b:b4:17:41:a5:d2:36:cf:ab:f6:
         a2:92:63:0d:b9:93:30:ad:46:86:c9:43:b2:45:a2:ee:ed:92:
         5e:ea:25:b5:50:00:4e:2a:79:63:96:f2:29:8b:e8:7d:e2:f8:
         2a:29:70:7f:2b:5e:58:ea:3f:61:8d:03:5a:ed:ca:ce:cf:5c:
         b6:6c:78:01:b4:16:e7:d7:3b:84:fa:e9:46:22:9c:cf:7a:fb:
         49:31:9a:a7:46:ce:ab:2f:cc:6c:d4:5c:0f:5f:ab:66:04:4c:
         79:30:84:89:a4:f9:82:06:54:42:16:6e:14:95:ef:ea:c6:42:
         0b:32:9b:b9:f3:ab:e0:92:90:4e:29:ae:e8:ec:5f:9d:84:06:
         86:e4:8a:fb:ed:9c:70:ce:96:95:14:9c:1d:cb:16:ff:fd:ac:
         fe:62:83:6f
-----BEGIN CERTIFICATE-----
MIIDfTCCAmWgAwIBAgIBCDANBgkqhkiG9w0BAQsFADCBrTELMAkGA1UEBhMCVVMx
EzARBgNVBAgMCkNhbGlmb3JuaWExFDASBgNVBAcMC0xvcyBBbmdlbGVzMRUwEwYD
VQQKDAxEaWdpQ2VydCBJbmMxGTAXBgNVBAsMEHd3dy5kaWdpY2VydC5jb20xIDAe
BgNVBAMMF0RpZ2lDZXJ0IEdsb2JhbCBSb290IENBMR8wHQYJKoZIhvcNAQkBFhB3
d3cuZGlnaWNlcnQuY29tMB4XDTI0MDMyNjA5NTc0N1oXDTM0MDMyNDA5NTc0N1ow
ga8xCzAJBgNVBAYTAlVTMRMwEQYDVQQIDApDYWxpZm9ybmlhMRQwEgYDVQQHDAtM
b3MgQW5nZWxlczEVMBMGA1UECgwMRGlnaUNlcnQgSW5jMRkwFwYDVQQLDBB3d3cu
ZGlnaWNlcnQuY29tMSIwIAYDVQQDDBl2b3J0ZXguZGF0YS5taWNyb3NvZnQuY29t
MR8wHQYJKoZIhvcNAQkBFhB3d3cuZGlnaWNlcnQuY29tMIGfMA0GCSqGSIb3DQEB
AQUAA4GNADCBiQKBgQC6rUwJGjyFT2DVk7yeEvSbFueL0igpq/k4meGEOhtwbqBb
rfNOZVwZ+1aJFvtoNkMaO7YyTWNDsMUQaT2WE3+q5HTUs2Cqr1vHVvbhSVXZkrpw
N3NMkWvMEI5Y8uIbGx5yPsa7pcoI2Lsju7+GAt4R6dl5bWCmxgws4zVy8Xa/tQID
AQABoygwJjAkBgNVHREEHTAbghl2b3J0ZXguZGF0YS5taWNyb3NvZnQuY29tMA0G
CSqGSIb3DQEBCwUAA4IBAQCVOgIYJ1hPpxFzrfvjypfch5OT6+sIrd5qRR6UXSgG
/KwoTZ/0t0qdM2dejD0XdDNSSQWoO10ah+SQNuS85O4xY5yBsTJ2Sr8GbC77iP1/
hkZgCvdfyblWkhcIKzzZ1dhlSnu0F0Gl0jbPq/aikmMNuZMwrUaGyUOyRaLu7ZJe
6iW1UABOKnljlvIpi+h94vgqKXB/K15Y6j9hjQNa7crOz1y2bHgBtBbn1zuE+ulG
IpzPevtJMZqnRs6rL8xs1FwPX6tmBEx5MISJpPmCBlRCFm4Ule/qxkILMpu586vg
kpBOKa7o7F+dhAaG5Ir77ZxwzpaVFJwdyxb//az+YoNv
-----END CERTIFICATE-----
