Certificate:
    Data:
        Version: 3 (0x2)
        Serial Number: 8 (0x8)
        Signature Algorithm: sha256WithRSAEncryption
        Issuer: C=US, ST=California, L=Los Angeles, O=DigiCert Inc, OU=www.digicert.com, CN=DigiCert Global Root CA/emailAddress=www.digicert.com
        Validity
            Not Before: Mar 21 08:56:53 2024 GMT
            Not After : Mar 19 08:56:53 2034 GMT
        Subject: C=US, ST=California, L=Los Angeles, O=DigiCert Inc, OU=www.digicert.com, CN=vortex.data.microsoft.com/emailAddress=www.digicert.com
        Subject Public Key Info:
            Public Key Algorithm: rsaEncryption
                RSA Public-Key: (1024 bit)
                Modulus:
                    00:ba:ad:4c:09:1a:3c:85:4f:60:d5:93:bc:9e:12:
                    f4:9b:16:e7:8b:d2:28:29:ab:f9:38:99:e1:84:3a:
                    1b:70:6e:a0:5b:ad:f3:4e:65:5c:19:fb:56:89:16:
                    fb:68:36:43:1a:3b:b6:32:4d:63:43:b0:c5:10:69:
                    3d:96:13:7f:aa:e4:74:d4:b3:60:aa:af:5b:c7:56:
                    f6:e1:49:55:d9:92:ba:70:37:73:4c:91:6b:cc:10:
                    8e:58:f2:e2:1b:1b:1e:72:3e:c6:bb:a5:ca:08:d8:
                    bb:23:bb:bf:86:02:de:11:e9:d9:79:6d:60:a6:c6:
                    0c:2c:e3:35:72:f1:76:bf:b5
                Exponent: 65537 (0x10001)
        X509v3 extensions:
            X509v3 Subject Alternative Name: 
                DNS:vortex.data.microsoft.com
    Signature Algorithm: sha256WithRSAEncryption
         9e:50:a3:61:33:cb:42:a2:0e:81:60:2e:1c:10:7f:87:c5:f2:
         a5:2a:53:4b:e7:fc:f7:d9:da:be:93:df:30:98:58:ea:32:b2:
         84:47:f2:de:d2:55:66:e6:95:7b:43:47:ed:ed:5c:b2:8f:30:
         d7:31:fb:4b:93:72:7e:c4:8e:5e:84:07:61:20:54:b1:b4:07:
         03:be:ad:a7:2d:08:8d:77:98:01:0e:51:98:c3:8c:55:56:37:
         6d:3a:38:45:05:74:51:b8:79:d1:23:8a:a1:b9:54:06:a1:41:
         21:cd:68:d0:fc:3a:36:d4:65:3e:94:04:d5:bf:f5:b7:cc:30:
         97:ca:95:49:70:66:fb:2c:23:6c:3a:ad:01:09:02:18:91:e2:
         de:e4:c3:74:1e:db:90:50:11:2a:bf:af:0c:09:39:3c:c7:11:
         9c:75:5b:b1:a9:e9:1f:de:50:47:49:6c:76:1f:fb:88:19:0b:
         11:d2:cf:ad:3a:8f:25:39:45:90:91:1e:16:59:1b:59:e1:d6:
         04:17:6b:95:7a:c4:b1:ed:0c:ef:07:64:56:26:56:2c:a7:97:
         b2:a3:d3:3a:aa:12:65:ed:42:b5:cb:fa:45:1b:6f:aa:04:7a:
         27:2e:ec:06:65:4b:1b:ef:c2:c3:a3:09:ab:8d:cb:63:6f:eb:
         2d:d6:9f:4d
-----BEGIN CERTIFICATE-----
MIIDfTCCAmWgAwIBAgIBCDANBgkqhkiG9w0BAQsFADCBrTELMAkGA1UEBhMCVVMx
EzARBgNVBAgMCkNhbGlmb3JuaWExFDASBgNVBAcMC0xvcyBBbmdlbGVzMRUwEwYD
VQQKDAxEaWdpQ2VydCBJbmMxGTAXBgNVBAsMEHd3dy5kaWdpY2VydC5jb20xIDAe
BgNVBAMMF0RpZ2lDZXJ0IEdsb2JhbCBSb290IENBMR8wHQYJKoZIhvcNAQkBFhB3
d3cuZGlnaWNlcnQuY29tMB4XDTI0MDMyMTA4NTY1M1oXDTM0MDMxOTA4NTY1M1ow
ga8xCzAJBgNVBAYTAlVTMRMwEQYDVQQIDApDYWxpZm9ybmlhMRQwEgYDVQQHDAtM
b3MgQW5nZWxlczEVMBMGA1UECgwMRGlnaUNlcnQgSW5jMRkwFwYDVQQLDBB3d3cu
ZGlnaWNlcnQuY29tMSIwIAYDVQQDDBl2b3J0ZXguZGF0YS5taWNyb3NvZnQuY29t
MR8wHQYJKoZIhvcNAQkBFhB3d3cuZGlnaWNlcnQuY29tMIGfMA0GCSqGSIb3DQEB
AQUAA4GNADCBiQKBgQC6rUwJGjyFT2DVk7yeEvSbFueL0igpq/k4meGEOhtwbqBb
rfNOZVwZ+1aJFvtoNkMaO7YyTWNDsMUQaT2WE3+q5HTUs2Cqr1vHVvbhSVXZkrpw
N3NMkWvMEI5Y8uIbGx5yPsa7pcoI2Lsju7+GAt4R6dl5bWCmxgws4zVy8Xa/tQID
AQABoygwJjAkBgNVHREEHTAbghl2b3J0ZXguZGF0YS5taWNyb3NvZnQuY29tMA0G
CSqGSIb3DQEBCwUAA4IBAQCeUKNhM8tCog6BYC4cEH+HxfKlKlNL5/z32dq+k98w
mFjqMrKER/Le0lVm5pV7Q0ft7VyyjzDXMftLk3J+xI5ehAdhIFSxtAcDvq2nLQiN
d5gBDlGYw4xVVjdtOjhFBXRRuHnRI4qhuVQGoUEhzWjQ/Do21GU+lATVv/W3zDCX
ypVJcGb7LCNsOq0BCQIYkeLe5MN0HtuQUBEqv68MCTk8xxGcdVuxqekf3lBHSWx2
H/uIGQsR0s+tOo8lOUWQkR4WWRtZ4dYEF2uVesSx7QzvB2RWJlYsp5eyo9M6qhJl
7UK1y/pFG2+qBHonLuwGZUsb78LDowmrjctjb+st1p9N
-----END CERTIFICATE-----
