Certificate:
    Data:
        Version: 3 (0x2)
        Serial Number: 14 (0xe)
        Signature Algorithm: sha256WithRSAEncryption
        Issuer: C=US, ST=California, L=Los Angeles, O=DigiCert Inc, OU=www.digicert.com, CN=DigiCert Global Root CA/emailAddress=www.digicert.com
        Validity
            Not Before: Mar 26 09:57:51 2024 GMT
            Not After : Mar 24 09:57:51 2034 GMT
        Subject: C=US, ST=California, L=Los Angeles, O=DigiCert Inc, OU=www.digicert.com, CN=w.meituan.net/emailAddress=www.digicert.com
        Subject Public Key Info:
            Public Key Algorithm: rsaEncryption
                RSA Public-Key: (1024 bit)
                Modulus:
                    00:ba:ad:4c:09:1a:3c:85:4f:60:d5:93:bc:9e:12:
                    f4:9b:16:e7:8b:d2:28:29:ab:f9:38:99:e1:84:3a:
                    1b:70:6e:a0:5b:ad:f3:4e:65:5c:19:fb:56:89:16:
                    fb:68:36:43:1a:3b:b6:32:4d:63:43:b0:c5:10:69:
                    3d:96:13:7f:aa:e4:74:d4:b3:60:aa:af:5b:c7:56:
                    f6:e1:49:55:d9:92:ba:70:37:73:4c:91:6b:cc:10:
                    8e:58:f2:e2:1b:1b:1e:72:3e:c6:bb:a5:ca:08:d8:
                    bb:23:bb:bf:86:02:de:11:e9:d9:79:6d:60:a6:c6:
                    0c:2c:e3:35:72:f1:76:bf:b5
                Exponent: 65537 (0x10001)
        X509v3 extensions:
            X509v3 Subject Alternative Name: 
                DNS:w.meituan.net
    Signature Algorithm: sha256WithRSAEncryption
         6a:84:92:bb:66:b5:00:47:69:df:a4:d6:b0:05:0a:8f:bf:e5:
         4b:3b:b5:02:75:c8:b9:7d:bf:a8:e0:26:fa:ae:a5:b7:ab:9d:
         9f:e9:41:0d:fa:48:95:56:27:08:b6:a4:3f:ce:4a:a0:17:06:
         fe:a2:d6:8c:c3:ab:ae:33:48:b4:31:d7:55:b8:c4:16:bd:c8:
         93:d6:c8:4e:60:88:a4:e0:72:d4:03:43:7c:f8:27:99:df:11:
         53:5a:f7:35:5f:61:0b:cf:a6:6c:d0:e5:34:e5:60:87:52:c1:
         0b:ac:d8:48:91:f5:0c:15:f3:81:5d:a7:81:19:21:39:91:72:
         bf:5d:d7:80:c4:76:02:6f:7b:cf:d8:e0:88:3d:17:c5:40:f2:
         59:32:fe:0e:3f:cd:fb:51:43:f4:35:2e:72:8a:ad:00:bc:15:
         a6:e7:a6:2a:f6:25:ae:57:4d:13:71:93:ce:92:8b:ce:9d:e5:
         33:46:81:7b:c2:8c:6d:0c:3e:fd:02:c0:91:c4:79:fa:8c:16:
         a2:c0:20:e0:46:3d:60:d3:5e:7e:c5:04:92:be:5d:c4:32:2a:
         ae:64:59:9e:f4:32:42:33:41:fa:3d:05:b9:3a:f1:a3:8a:a7:
         d8:70:3c:69:74:57:66:d5:79:40:f2:e5:51:8e:08:1f:df:7d:
         3f:06:7b:4b
-----BEGIN CERTIFICATE-----
MIIDZTCCAk2gAwIBAgIBDjANBgkqhkiG9w0BAQsFADCBrTELMAkGA1UEBhMCVVMx
EzARBgNVBAgMCkNhbGlmb3JuaWExFDASBgNVBAcMC0xvcyBBbmdlbGVzMRUwEwYD
VQQKDAxEaWdpQ2VydCBJbmMxGTAXBgNVBAsMEHd3dy5kaWdpY2VydC5jb20xIDAe
BgNVBAMMF0RpZ2lDZXJ0IEdsb2JhbCBSb290IENBMR8wHQYJKoZIhvcNAQkBFhB3
d3cuZGlnaWNlcnQuY29tMB4XDTI0MDMyNjA5NTc1MVoXDTM0MDMyNDA5NTc1MVow
gaMxCzAJBgNVBAYTAlVTMRMwEQYDVQQIDApDYWxpZm9ybmlhMRQwEgYDVQQHDAtM
b3MgQW5nZWxlczEVMBMGA1UECgwMRGlnaUNlcnQgSW5jMRkwFwYDVQQLDBB3d3cu
ZGlnaWNlcnQuY29tMRYwFAYDVQQDDA13Lm1laXR1YW4ubmV0MR8wHQYJKoZIhvcN
AQkBFhB3d3cuZGlnaWNlcnQuY29tMIGfMA0GCSqGSIb3DQEBAQUAA4GNADCBiQKB
gQC6rUwJGjyFT2DVk7yeEvSbFueL0igpq/k4meGEOhtwbqBbrfNOZVwZ+1aJFvto
NkMaO7YyTWNDsMUQaT2WE3+q5HTUs2Cqr1vHVvbhSVXZkrpwN3NMkWvMEI5Y8uIb
Gx5yPsa7pcoI2Lsju7+GAt4R6dl5bWCmxgws4zVy8Xa/tQIDAQABoxwwGjAYBgNV
HREEETAPgg13Lm1laXR1YW4ubmV0MA0GCSqGSIb3DQEBCwUAA4IBAQBqhJK7ZrUA
R2nfpNawBQqPv+VLO7UCdci5fb+o4Cb6rqW3q52f6UEN+kiVVicItqQ/zkqgFwb+
otaMw6uuM0i0MddVuMQWvciT1shOYIik4HLUA0N8+CeZ3xFTWvc1X2ELz6Zs0OU0
5WCHUsELrNhIkfUMFfOBXaeBGSE5kXK/XdeAxHYCb3vP2OCIPRfFQPJZMv4OP837
UUP0NS5yiq0AvBWm56Yq9iWuV00TcZPOkovOneUzRoF7woxtDD79AsCRxHn6jBai
wCDgRj1g015+xQSSvl3EMiquZFme9DJCM0H6PQW5OvGjiqfYcDxpdFdm1XlA8uVR
jggf330/BntL
-----END CERTIFICATE-----
