Certificate:
    Data:
        Version: 3 (0x2)
        Serial Number: 36 (0x24)
        Signature Algorithm: sha256WithRSAEncryption
        Issuer: C=US, ST=California, L=Los Angeles, O=DigiCert Inc, OU=www.digicert.com, CN=DigiCert Global Root CA/emailAddress=www.digicert.com
        Validity
            Not Before: Mar 21 09:07:52 2024 GMT
            Not After : Mar 19 09:07:52 2034 GMT
        Subject: C=US, ST=California, L=Los Angeles, O=DigiCert Inc, OU=www.digicert.com, CN=wen.baidu.com/emailAddress=www.digicert.com
        Subject Public Key Info:
            Public Key Algorithm: rsaEncryption
                RSA Public-Key: (1024 bit)
                Modulus:
                    00:ba:ad:4c:09:1a:3c:85:4f:60:d5:93:bc:9e:12:
                    f4:9b:16:e7:8b:d2:28:29:ab:f9:38:99:e1:84:3a:
                    1b:70:6e:a0:5b:ad:f3:4e:65:5c:19:fb:56:89:16:
                    fb:68:36:43:1a:3b:b6:32:4d:63:43:b0:c5:10:69:
                    3d:96:13:7f:aa:e4:74:d4:b3:60:aa:af:5b:c7:56:
                    f6:e1:49:55:d9:92:ba:70:37:73:4c:91:6b:cc:10:
                    8e:58:f2:e2:1b:1b:1e:72:3e:c6:bb:a5:ca:08:d8:
                    bb:23:bb:bf:86:02:de:11:e9:d9:79:6d:60:a6:c6:
                    0c:2c:e3:35:72:f1:76:bf:b5
                Exponent: 65537 (0x10001)
        X509v3 extensions:
            X509v3 Subject Alternative Name: 
                DNS:wen.baidu.com
    Signature Algorithm: sha256WithRSAEncryption
         75:ca:b1:44:d3:67:98:4f:f6:53:f2:d5:2e:05:fe:91:9a:9f:
         d0:23:eb:b3:b1:90:a2:25:3d:b8:48:88:68:4c:d0:f2:a3:fe:
         25:be:ce:0c:9f:14:cf:05:a1:59:cd:6d:37:5e:50:7e:9e:84:
         09:ed:5c:2b:a8:0d:03:89:6e:0d:01:2b:64:4a:64:0d:6b:73:
         70:26:36:8b:21:d1:9a:a1:0a:d1:aa:25:ff:fd:95:01:dc:9e:
         21:2e:a1:a5:de:16:e0:04:20:5a:38:9e:19:c7:56:32:07:15:
         28:f1:3c:fe:ed:8d:8a:9b:a1:9b:f2:99:fa:13:4e:70:e8:bb:
         1c:51:c3:4f:ed:85:7c:50:8e:ce:67:34:d1:da:92:16:8d:ac:
         83:92:b5:7c:89:81:83:4a:73:52:13:16:bc:a0:56:64:fc:5e:
         22:4d:ba:54:b4:d3:7d:34:70:30:81:78:e2:47:e9:b5:d8:2f:
         64:d4:a6:bd:dd:54:ed:60:85:b3:a0:55:5a:af:bd:a8:94:b8:
         71:b6:96:a9:36:e2:21:1d:cd:03:79:8c:a0:a8:90:7e:fa:fa:
         f1:29:9f:1b:9d:9c:74:3b:4e:e0:bf:eb:f0:4e:4a:fb:ce:4b:
         70:1b:42:eb:13:4b:ca:5a:4b:b6:69:13:37:f1:cd:0f:73:74:
         69:86:f7:65
-----BEGIN CERTIFICATE-----
MIIDZTCCAk2gAwIBAgIBJDANBgkqhkiG9w0BAQsFADCBrTELMAkGA1UEBhMCVVMx
EzARBgNVBAgMCkNhbGlmb3JuaWExFDASBgNVBAcMC0xvcyBBbmdlbGVzMRUwEwYD
VQQKDAxEaWdpQ2VydCBJbmMxGTAXBgNVBAsMEHd3dy5kaWdpY2VydC5jb20xIDAe
BgNVBAMMF0RpZ2lDZXJ0IEdsb2JhbCBSb290IENBMR8wHQYJKoZIhvcNAQkBFhB3
d3cuZGlnaWNlcnQuY29tMB4XDTI0MDMyMTA5MDc1MloXDTM0MDMxOTA5MDc1Mlow
gaMxCzAJBgNVBAYTAlVTMRMwEQYDVQQIDApDYWxpZm9ybmlhMRQwEgYDVQQHDAtM
b3MgQW5nZWxlczEVMBMGA1UECgwMRGlnaUNlcnQgSW5jMRkwFwYDVQQLDBB3d3cu
ZGlnaWNlcnQuY29tMRYwFAYDVQQDDA13ZW4uYmFpZHUuY29tMR8wHQYJKoZIhvcN
AQkBFhB3d3cuZGlnaWNlcnQuY29tMIGfMA0GCSqGSIb3DQEBAQUAA4GNADCBiQKB
gQC6rUwJGjyFT2DVk7yeEvSbFueL0igpq/k4meGEOhtwbqBbrfNOZVwZ+1aJFvto
NkMaO7YyTWNDsMUQaT2WE3+q5HTUs2Cqr1vHVvbhSVXZkrpwN3NMkWvMEI5Y8uIb
Gx5yPsa7pcoI2Lsju7+GAt4R6dl5bWCmxgws4zVy8Xa/tQIDAQABoxwwGjAYBgNV
HREEETAPgg13ZW4uYmFpZHUuY29tMA0GCSqGSIb3DQEBCwUAA4IBAQB1yrFE02eY
T/ZT8tUuBf6Rmp/QI+uzsZCiJT24SIhoTNDyo/4lvs4MnxTPBaFZzW03XlB+noQJ
7VwrqA0DiW4NAStkSmQNa3NwJjaLIdGaoQrRqiX//ZUB3J4hLqGl3hbgBCBaOJ4Z
x1YyBxUo8Tz+7Y2Km6Gb8pn6E05w6LscUcNP7YV8UI7OZzTR2pIWjayDkrV8iYGD
SnNSExa8oFZk/F4iTbpUtNN9NHAwgXjiR+m12C9k1Ka93VTtYIWzoFVar72olLhx
tpapNuIhHc0DeYygqJB++vrxKZ8bnZx0O07gv+vwTkr7zktwG0LrE0vKWku2aRM3
8c0Pc3Rphvdl
-----END CERTIFICATE-----
