Certificate:
    Data:
        Version: 3 (0x2)
        Serial Number: 2 (0x2)
        Signature Algorithm: sha256WithRSAEncryption
        Issuer: C=US, ST=California, L=Los Angeles, O=DigiCert Inc, OU=www.digicert.com, CN=DigiCert Global Root CA/emailAddress=www.digicert.com
        Validity
            Not Before: Mar 26 09:57:30 2024 GMT
            Not After : Mar 24 09:57:30 2034 GMT
        Subject: C=US, ST=California, L=Los Angeles, O=DigiCert Inc, OU=www.digicert.com, CN=wmdxlwss.meituan.com/emailAddress=www.digicert.com
        Subject Public Key Info:
            Public Key Algorithm: rsaEncryption
                RSA Public-Key: (1024 bit)
                Modulus:
                    00:ba:ad:4c:09:1a:3c:85:4f:60:d5:93:bc:9e:12:
                    f4:9b:16:e7:8b:d2:28:29:ab:f9:38:99:e1:84:3a:
                    1b:70:6e:a0:5b:ad:f3:4e:65:5c:19:fb:56:89:16:
                    fb:68:36:43:1a:3b:b6:32:4d:63:43:b0:c5:10:69:
                    3d:96:13:7f:aa:e4:74:d4:b3:60:aa:af:5b:c7:56:
                    f6:e1:49:55:d9:92:ba:70:37:73:4c:91:6b:cc:10:
                    8e:58:f2:e2:1b:1b:1e:72:3e:c6:bb:a5:ca:08:d8:
                    bb:23:bb:bf:86:02:de:11:e9:d9:79:6d:60:a6:c6:
                    0c:2c:e3:35:72:f1:76:bf:b5
                Exponent: 65537 (0x10001)
        X509v3 extensions:
            X509v3 Subject Alternative Name: 
                DNS:wmdxlwss.meituan.com
    Signature Algorithm: sha256WithRSAEncryption
         2c:ed:e6:cd:9b:ea:22:24:9e:27:36:3c:b3:9d:0a:e4:f7:51:
         11:0b:e1:10:d5:c6:59:d8:69:5e:5d:8e:ba:5d:07:b7:50:76:
         bb:82:58:4a:47:ea:1a:50:9a:7f:65:0f:3b:48:17:50:72:dc:
         5a:84:f6:05:38:a5:81:97:71:50:b4:63:98:36:90:ee:2b:46:
         05:59:bd:94:f0:9e:84:e2:86:e2:4b:24:1f:71:fb:2e:8c:4a:
         74:86:89:d2:2a:26:56:ea:81:fb:85:7b:a7:00:13:8a:ca:ab:
         88:6c:ba:08:b3:ac:46:01:53:99:57:4f:a6:a9:37:62:a7:69:
         84:db:f1:bc:cf:12:4a:78:a2:75:96:c2:fb:97:69:ed:9f:cc:
         0c:b5:1c:c5:31:ea:c3:36:8c:86:02:64:05:94:a8:d9:c0:5a:
         0b:7e:68:5e:2d:06:d9:6e:11:ac:22:c7:4b:ae:39:ba:2f:ef:
         15:8d:18:38:c8:2a:40:01:db:a5:52:4a:7c:82:1a:6d:3c:ef:
         7a:47:41:b7:7e:1e:cc:15:24:0a:22:6d:f1:ca:12:cc:5a:c8:
         da:9a:dc:03:8e:58:40:72:a2:7c:10:3c:6c:e2:9c:2f:3c:f0:
         85:79:30:e7:43:d9:2a:49:63:38:91:85:36:4a:dd:10:8e:c4:
         12:28:1d:91
-----BEGIN CERTIFICATE-----
MIIDczCCAlugAwIBAgIBAjANBgkqhkiG9w0BAQsFADCBrTELMAkGA1UEBhMCVVMx
EzARBgNVBAgMCkNhbGlmb3JuaWExFDASBgNVBAcMC0xvcyBBbmdlbGVzMRUwEwYD
VQQKDAxEaWdpQ2VydCBJbmMxGTAXBgNVBAsMEHd3dy5kaWdpY2VydC5jb20xIDAe
BgNVBAMMF0RpZ2lDZXJ0IEdsb2JhbCBSb290IENBMR8wHQYJKoZIhvcNAQkBFhB3
d3cuZGlnaWNlcnQuY29tMB4XDTI0MDMyNjA5NTczMFoXDTM0MDMyNDA5NTczMFow
gaoxCzAJBgNVBAYTAlVTMRMwEQYDVQQIDApDYWxpZm9ybmlhMRQwEgYDVQQHDAtM
b3MgQW5nZWxlczEVMBMGA1UECgwMRGlnaUNlcnQgSW5jMRkwFwYDVQQLDBB3d3cu
ZGlnaWNlcnQuY29tMR0wGwYDVQQDDBR3bWR4bHdzcy5tZWl0dWFuLmNvbTEfMB0G
CSqGSIb3DQEJARYQd3d3LmRpZ2ljZXJ0LmNvbTCBnzANBgkqhkiG9w0BAQEFAAOB
jQAwgYkCgYEAuq1MCRo8hU9g1ZO8nhL0mxbni9IoKav5OJnhhDobcG6gW63zTmVc
GftWiRb7aDZDGju2Mk1jQ7DFEGk9lhN/quR01LNgqq9bx1b24UlV2ZK6cDdzTJFr
zBCOWPLiGxsecj7Gu6XKCNi7I7u/hgLeEenZeW1gpsYMLOM1cvF2v7UCAwEAAaMj
MCEwHwYDVR0RBBgwFoIUd21keGx3c3MubWVpdHVhbi5jb20wDQYJKoZIhvcNAQEL
BQADggEBACzt5s2b6iIknic2PLOdCuT3UREL4RDVxlnYaV5djrpdB7dQdruCWEpH
6hpQmn9lDztIF1By3FqE9gU4pYGXcVC0Y5g2kO4rRgVZvZTwnoTihuJLJB9x+y6M
SnSGidIqJlbqgfuFe6cAE4rKq4hsugizrEYBU5lXT6apN2KnaYTb8bzPEkp4onWW
wvuXae2fzAy1HMUx6sM2jIYCZAWUqNnAWgt+aF4tBtluEawix0uuObov7xWNGDjI
KkAB26VSSnyCGm0873pHQbd+HswVJAoibfHKEsxayNqa3AOOWEByonwQPGzinC88
8IV5MOdD2SpJYziRhTZK3RCOxBIoHZE=
-----END CERTIFICATE-----
