Certificate:
    Data:
        Version: 3 (0x2)
        Serial Number: 42 (0x2a)
        Signature Algorithm: sha256WithRSAEncryption
        Issuer: C=US, ST=California, L=Los Angeles, O=DigiCert Inc, OU=www.digicert.com, CN=DigiCert Global Root CA/emailAddress=www.digicert.com
        Validity
            Not Before: Mar 21 09:07:54 2024 GMT
            Not After : Mar 19 09:07:54 2034 GMT
        Subject: C=US, ST=California, L=Los Angeles, O=DigiCert Inc, OU=www.digicert.com, CN=www.baidu.com/emailAddress=www.digicert.com
        Subject Public Key Info:
            Public Key Algorithm: rsaEncryption
                RSA Public-Key: (1024 bit)
                Modulus:
                    00:ba:ad:4c:09:1a:3c:85:4f:60:d5:93:bc:9e:12:
                    f4:9b:16:e7:8b:d2:28:29:ab:f9:38:99:e1:84:3a:
                    1b:70:6e:a0:5b:ad:f3:4e:65:5c:19:fb:56:89:16:
                    fb:68:36:43:1a:3b:b6:32:4d:63:43:b0:c5:10:69:
                    3d:96:13:7f:aa:e4:74:d4:b3:60:aa:af:5b:c7:56:
                    f6:e1:49:55:d9:92:ba:70:37:73:4c:91:6b:cc:10:
                    8e:58:f2:e2:1b:1b:1e:72:3e:c6:bb:a5:ca:08:d8:
                    bb:23:bb:bf:86:02:de:11:e9:d9:79:6d:60:a6:c6:
                    0c:2c:e3:35:72:f1:76:bf:b5
                Exponent: 65537 (0x10001)
        X509v3 extensions:
            X509v3 Subject Alternative Name: 
                DNS:www.baidu.com
    Signature Algorithm: sha256WithRSAEncryption
         a8:96:bd:26:b8:65:95:d4:80:e1:01:fc:c7:c0:cf:0a:a1:1d:
         74:a6:67:3d:02:e8:b0:55:ed:48:b4:1e:56:d1:5f:ac:93:4f:
         e4:a3:5e:26:61:75:ad:4f:17:12:84:61:70:e4:c8:99:39:1b:
         f6:6f:0b:d1:22:ee:65:1a:9e:3f:82:5c:96:9a:f9:bd:66:d2:
         17:95:b6:92:02:03:d9:4d:f1:64:c3:b1:e1:d8:a3:25:03:ca:
         b1:7b:b6:dc:c7:25:bc:5c:47:8a:aa:cb:e9:bc:7f:b5:1f:bb:
         5d:ee:64:8f:d6:d3:c9:2f:8a:6b:91:65:3e:80:c4:74:c0:f3:
         fe:30:c3:2b:ae:22:b6:40:fb:42:b4:3c:98:b8:3c:de:a0:d7:
         6d:8f:43:38:b9:8a:e5:6b:2d:ba:03:67:ca:76:af:17:df:76:
         3e:a3:58:47:1f:ae:2c:b7:ae:83:fd:91:27:51:f8:2a:86:97:
         9c:dd:29:98:99:d0:2c:c8:58:dd:b1:95:3a:ad:7c:de:83:ef:
         34:f3:7c:23:d2:6e:f2:34:b4:2a:05:77:14:90:fb:03:bb:cc:
         fc:ed:8e:76:d9:7d:64:5b:0f:5d:e5:ab:e6:7e:c1:a1:e8:52:
         24:ee:13:b8:05:6c:ee:d0:c5:06:9b:ab:06:d9:be:2d:d4:66:
         65:55:54:17
-----BEGIN CERTIFICATE-----
MIIDZTCCAk2gAwIBAgIBKjANBgkqhkiG9w0BAQsFADCBrTELMAkGA1UEBhMCVVMx
EzARBgNVBAgMCkNhbGlmb3JuaWExFDASBgNVBAcMC0xvcyBBbmdlbGVzMRUwEwYD
VQQKDAxEaWdpQ2VydCBJbmMxGTAXBgNVBAsMEHd3dy5kaWdpY2VydC5jb20xIDAe
BgNVBAMMF0RpZ2lDZXJ0IEdsb2JhbCBSb290IENBMR8wHQYJKoZIhvcNAQkBFhB3
d3cuZGlnaWNlcnQuY29tMB4XDTI0MDMyMTA5MDc1NFoXDTM0MDMxOTA5MDc1NFow
gaMxCzAJBgNVBAYTAlVTMRMwEQYDVQQIDApDYWxpZm9ybmlhMRQwEgYDVQQHDAtM
b3MgQW5nZWxlczEVMBMGA1UECgwMRGlnaUNlcnQgSW5jMRkwFwYDVQQLDBB3d3cu
ZGlnaWNlcnQuY29tMRYwFAYDVQQDDA13d3cuYmFpZHUuY29tMR8wHQYJKoZIhvcN
AQkBFhB3d3cuZGlnaWNlcnQuY29tMIGfMA0GCSqGSIb3DQEBAQUAA4GNADCBiQKB
gQC6rUwJGjyFT2DVk7yeEvSbFueL0igpq/k4meGEOhtwbqBbrfNOZVwZ+1aJFvto
NkMaO7YyTWNDsMUQaT2WE3+q5HTUs2Cqr1vHVvbhSVXZkrpwN3NMkWvMEI5Y8uIb
Gx5yPsa7pcoI2Lsju7+GAt4R6dl5bWCmxgws4zVy8Xa/tQIDAQABoxwwGjAYBgNV
HREEETAPgg13d3cuYmFpZHUuY29tMA0GCSqGSIb3DQEBCwUAA4IBAQColr0muGWV
1IDhAfzHwM8KoR10pmc9AuiwVe1ItB5W0V+sk0/ko14mYXWtTxcShGFw5MiZORv2
bwvRIu5lGp4/glyWmvm9ZtIXlbaSAgPZTfFkw7Hh2KMlA8qxe7bcxyW8XEeKqsvp
vH+1H7td7mSP1tPJL4prkWU+gMR0wPP+MMMrriK2QPtCtDyYuDzeoNdtj0M4uYrl
ay26A2fKdq8X33Y+o1hHH64st66D/ZEnUfgqhpec3SmYmdAsyFjdsZU6rXzeg+80
83wj0m7yNLQqBXcUkPsDu8z87Y522X1kWw9d5avmfsGh6FIk7hO4BWzu0MUGm6sG
2b4t1GZlVVQX
-----END CERTIFICATE-----
