Certificate:
    Data:
        Version: 3 (0x2)
        Serial Number: 47 (0x2f)
        Signature Algorithm: sha256WithRSAEncryption
        Issuer: C=US, ST=California, L=Los Angeles, O=DigiCert Inc, OU=www.digicert.com, CN=DigiCert Global Root CA/emailAddress=www.digicert.com
        Validity
            Not Before: Mar 21 09:08:17 2024 GMT
            Not After : Mar 19 09:08:17 2034 GMT
        Subject: C=US, ST=California, L=Los Angeles, O=DigiCert Inc, OU=www.digicert.com, CN=www.zhihu.com/emailAddress=www.digicert.com
        Subject Public Key Info:
            Public Key Algorithm: rsaEncryption
                RSA Public-Key: (1024 bit)
                Modulus:
                    00:ba:ad:4c:09:1a:3c:85:4f:60:d5:93:bc:9e:12:
                    f4:9b:16:e7:8b:d2:28:29:ab:f9:38:99:e1:84:3a:
                    1b:70:6e:a0:5b:ad:f3:4e:65:5c:19:fb:56:89:16:
                    fb:68:36:43:1a:3b:b6:32:4d:63:43:b0:c5:10:69:
                    3d:96:13:7f:aa:e4:74:d4:b3:60:aa:af:5b:c7:56:
                    f6:e1:49:55:d9:92:ba:70:37:73:4c:91:6b:cc:10:
                    8e:58:f2:e2:1b:1b:1e:72:3e:c6:bb:a5:ca:08:d8:
                    bb:23:bb:bf:86:02:de:11:e9:d9:79:6d:60:a6:c6:
                    0c:2c:e3:35:72:f1:76:bf:b5
                Exponent: 65537 (0x10001)
        X509v3 extensions:
            X509v3 Subject Alternative Name: 
                DNS:www.zhihu.com
    Signature Algorithm: sha256WithRSAEncryption
         81:32:32:98:d3:2a:23:e3:f0:60:34:27:81:87:a5:3f:35:2a:
         df:09:51:bc:b0:7a:06:28:56:b8:ed:9f:27:d6:fe:0a:48:73:
         53:7a:7e:a7:c7:9f:a7:da:37:9f:16:f7:26:00:44:0e:d7:de:
         de:2f:80:27:da:37:9d:76:b9:3f:17:66:29:ab:06:65:b5:89:
         1e:75:80:a3:ec:79:b6:ff:ca:46:b7:be:c9:98:61:d9:95:1f:
         f4:89:06:0e:95:81:e6:f5:2a:5b:54:89:0f:44:1a:d8:a9:de:
         d6:e0:09:4e:c8:2b:f3:b0:ce:06:e3:07:e6:95:97:65:51:c8:
         de:75:d5:98:24:1a:f3:f0:e0:5e:bd:a1:ca:3b:a1:c0:92:25:
         24:bb:19:ce:02:d8:6d:10:ad:8f:54:62:d6:06:8a:8a:9f:f8:
         4f:37:39:50:c0:81:ae:c7:05:95:54:f1:2a:8c:b8:58:42:2b:
         e6:83:7e:ad:d2:45:86:c6:04:2a:02:d3:78:c3:68:65:01:8c:
         5f:d0:28:6b:59:c1:0f:18:7f:00:f2:cc:55:c7:d4:10:bb:60:
         53:d7:96:45:ae:84:b7:bf:80:4c:fa:b6:7d:d3:ec:a7:c1:10:
         6a:dd:87:65:bd:5b:1e:71:bb:b5:7b:d8:7b:d6:b1:f9:06:40:
         27:7e:90:03
-----BEGIN CERTIFICATE-----
MIIDZTCCAk2gAwIBAgIBLzANBgkqhkiG9w0BAQsFADCBrTELMAkGA1UEBhMCVVMx
EzARBgNVBAgMCkNhbGlmb3JuaWExFDASBgNVBAcMC0xvcyBBbmdlbGVzMRUwEwYD
VQQKDAxEaWdpQ2VydCBJbmMxGTAXBgNVBAsMEHd3dy5kaWdpY2VydC5jb20xIDAe
BgNVBAMMF0RpZ2lDZXJ0IEdsb2JhbCBSb290IENBMR8wHQYJKoZIhvcNAQkBFhB3
d3cuZGlnaWNlcnQuY29tMB4XDTI0MDMyMTA5MDgxN1oXDTM0MDMxOTA5MDgxN1ow
gaMxCzAJBgNVBAYTAlVTMRMwEQYDVQQIDApDYWxpZm9ybmlhMRQwEgYDVQQHDAtM
b3MgQW5nZWxlczEVMBMGA1UECgwMRGlnaUNlcnQgSW5jMRkwFwYDVQQLDBB3d3cu
ZGlnaWNlcnQuY29tMRYwFAYDVQQDDA13d3cuemhpaHUuY29tMR8wHQYJKoZIhvcN
AQkBFhB3d3cuZGlnaWNlcnQuY29tMIGfMA0GCSqGSIb3DQEBAQUAA4GNADCBiQKB
gQC6rUwJGjyFT2DVk7yeEvSbFueL0igpq/k4meGEOhtwbqBbrfNOZVwZ+1aJFvto
NkMaO7YyTWNDsMUQaT2WE3+q5HTUs2Cqr1vHVvbhSVXZkrpwN3NMkWvMEI5Y8uIb
Gx5yPsa7pcoI2Lsju7+GAt4R6dl5bWCmxgws4zVy8Xa/tQIDAQABoxwwGjAYBgNV
HREEETAPgg13d3cuemhpaHUuY29tMA0GCSqGSIb3DQEBCwUAA4IBAQCBMjKY0yoj
4/BgNCeBh6U/NSrfCVG8sHoGKFa47Z8n1v4KSHNTen6nx5+n2jefFvcmAEQO197e
L4An2jeddrk/F2YpqwZltYkedYCj7Hm2/8pGt77JmGHZlR/0iQYOlYHm9SpbVIkP
RBrYqd7W4AlOyCvzsM4G4wfmlZdlUcjeddWYJBrz8OBevaHKO6HAkiUkuxnOAtht
EK2PVGLWBoqKn/hPNzlQwIGuxwWVVPEqjLhYQivmg36t0kWGxgQqAtN4w2hlAYxf
0ChrWcEPGH8A8sxVx9QQu2BT15ZFroS3v4BM+rZ90+ynwRBq3YdlvVsecbu1e9h7
1rH5BkAnfpAD
-----END CERTIFICATE-----
