Certificate:
    Data:
        Version: 3 (0x2)
        Serial Number: 25 (0x19)
        Signature Algorithm: sha256WithRSAEncryption
        Issuer: C=US, ST=California, L=Los Angeles, O=DigiCert Inc, OU=www.digicert.com, CN=DigiCert Global Root CA/emailAddress=www.digicert.com
        Validity
            Not Before: Mar 21 06:27:09 2024 GMT
            Not After : Mar 19 06:27:09 2034 GMT
        Subject: C=US, ST=California, L=Los Angeles, O=DigiCert Inc, OU=www.digicert.com, CN=www.google.com/emailAddress=www.digicert.com
        Subject Public Key Info:
            Public Key Algorithm: rsaEncryption
                RSA Public-Key: (1024 bit)
                Modulus:
                    00:ba:ad:4c:09:1a:3c:85:4f:60:d5:93:bc:9e:12:
                    f4:9b:16:e7:8b:d2:28:29:ab:f9:38:99:e1:84:3a:
                    1b:70:6e:a0:5b:ad:f3:4e:65:5c:19:fb:56:89:16:
                    fb:68:36:43:1a:3b:b6:32:4d:63:43:b0:c5:10:69:
                    3d:96:13:7f:aa:e4:74:d4:b3:60:aa:af:5b:c7:56:
                    f6:e1:49:55:d9:92:ba:70:37:73:4c:91:6b:cc:10:
                    8e:58:f2:e2:1b:1b:1e:72:3e:c6:bb:a5:ca:08:d8:
                    bb:23:bb:bf:86:02:de:11:e9:d9:79:6d:60:a6:c6:
                    0c:2c:e3:35:72:f1:76:bf:b5
                Exponent: 65537 (0x10001)
        X509v3 extensions:
            X509v3 Subject Alternative Name: 
                DNS:www.google.com
    Signature Algorithm: sha256WithRSAEncryption
         49:31:43:57:4f:7e:a2:e4:ca:37:13:a1:c9:fd:6d:81:f6:da:
         59:1b:de:97:3b:5a:c6:a6:86:6b:93:cd:a8:9a:b7:1e:3a:99:
         eb:56:35:25:6a:99:56:8c:39:a5:bf:f5:fa:3a:25:84:dc:75:
         d9:f1:a3:92:4f:35:40:a2:cc:aa:4d:86:83:a9:cd:3b:fc:9e:
         ff:b3:51:8a:7d:e9:05:99:14:c3:66:eb:eb:6b:d1:99:f2:8d:
         a9:88:9c:63:c6:7f:b8:32:b5:c8:d1:4d:2d:25:f5:d8:45:01:
         28:d9:82:37:ee:89:b6:9e:16:80:9f:2d:88:2e:59:2f:d1:d3:
         d6:f4:96:be:b1:b0:ff:ae:1a:88:3c:b3:22:9f:8f:30:e1:63:
         f0:e8:12:66:2b:4b:a4:fc:72:de:fe:b4:2e:00:76:7f:e4:cb:
         59:6c:1d:b0:d6:89:43:4d:8f:99:8d:40:d9:73:8e:4e:8a:dd:
         64:23:07:b7:22:12:05:55:36:e9:af:a2:84:fe:45:cb:ff:17:
         f1:a8:a4:a2:c4:9b:c0:2d:5d:9a:58:1a:fb:64:24:d8:88:8f:
         71:c1:7d:ce:2c:4e:c1:9c:b8:a5:be:6e:c6:f8:98:54:ab:9a:
         bf:b5:6d:8e:83:ea:a2:62:67:05:22:3e:7d:3e:e5:8e:40:3c:
         04:27:01:d5
-----BEGIN CERTIFICATE-----
MIIDZzCCAk+gAwIBAgIBGTANBgkqhkiG9w0BAQsFADCBrTELMAkGA1UEBhMCVVMx
EzARBgNVBAgMCkNhbGlmb3JuaWExFDASBgNVBAcMC0xvcyBBbmdlbGVzMRUwEwYD
VQQKDAxEaWdpQ2VydCBJbmMxGTAXBgNVBAsMEHd3dy5kaWdpY2VydC5jb20xIDAe
BgNVBAMMF0RpZ2lDZXJ0IEdsb2JhbCBSb290IENBMR8wHQYJKoZIhvcNAQkBFhB3
d3cuZGlnaWNlcnQuY29tMB4XDTI0MDMyMTA2MjcwOVoXDTM0MDMxOTA2MjcwOVow
gaQxCzAJBgNVBAYTAlVTMRMwEQYDVQQIDApDYWxpZm9ybmlhMRQwEgYDVQQHDAtM
b3MgQW5nZWxlczEVMBMGA1UECgwMRGlnaUNlcnQgSW5jMRkwFwYDVQQLDBB3d3cu
ZGlnaWNlcnQuY29tMRcwFQYDVQQDDA53d3cuZ29vZ2xlLmNvbTEfMB0GCSqGSIb3
DQEJARYQd3d3LmRpZ2ljZXJ0LmNvbTCBnzANBgkqhkiG9w0BAQEFAAOBjQAwgYkC
gYEAuq1MCRo8hU9g1ZO8nhL0mxbni9IoKav5OJnhhDobcG6gW63zTmVcGftWiRb7
aDZDGju2Mk1jQ7DFEGk9lhN/quR01LNgqq9bx1b24UlV2ZK6cDdzTJFrzBCOWPLi
Gxsecj7Gu6XKCNi7I7u/hgLeEenZeW1gpsYMLOM1cvF2v7UCAwEAAaMdMBswGQYD
VR0RBBIwEIIOd3d3Lmdvb2dsZS5jb20wDQYJKoZIhvcNAQELBQADggEBAEkxQ1dP
fqLkyjcTocn9bYH22lkb3pc7WsamhmuTzaiatx46metWNSVqmVaMOaW/9fo6JYTc
ddnxo5JPNUCizKpNhoOpzTv8nv+zUYp96QWZFMNm6+tr0ZnyjamInGPGf7gytcjR
TS0l9dhFASjZgjfuibaeFoCfLYguWS/R09b0lr6xsP+uGog8syKfjzDhY/DoEmYr
S6T8ct7+tC4Adn/ky1lsHbDWiUNNj5mNQNlzjk6K3WQjB7ciEgVVNumvooT+Rcv/
F/GopKLEm8AtXZpYGvtkJNiIj3HBfc4sTsGcuKW+bsb4mFSrmr+1bY6D6qJiZwUi
Pn0+5Y5APAQnAdU=
-----END CERTIFICATE-----
