Certificate:
    Data:
        Version: 3 (0x2)
        Serial Number: 46 (0x2e)
        Signature Algorithm: sha256WithRSAEncryption
        Issuer: C=US, ST=California, L=Los Angeles, O=DigiCert Inc, OU=www.digicert.com, CN=DigiCert Global Root CA/emailAddress=www.digicert.com
        Validity
            Not Before: Mar 21 09:07:55 2024 GMT
            Not After : Mar 19 09:07:55 2034 GMT
        Subject: C=US, ST=California, L=Los Angeles, O=DigiCert Inc, OU=www.digicert.com, CN=wyw-base.cdn.bcebos.com/emailAddress=www.digicert.com
        Subject Public Key Info:
            Public Key Algorithm: rsaEncryption
                RSA Public-Key: (1024 bit)
                Modulus:
                    00:ba:ad:4c:09:1a:3c:85:4f:60:d5:93:bc:9e:12:
                    f4:9b:16:e7:8b:d2:28:29:ab:f9:38:99:e1:84:3a:
                    1b:70:6e:a0:5b:ad:f3:4e:65:5c:19:fb:56:89:16:
                    fb:68:36:43:1a:3b:b6:32:4d:63:43:b0:c5:10:69:
                    3d:96:13:7f:aa:e4:74:d4:b3:60:aa:af:5b:c7:56:
                    f6:e1:49:55:d9:92:ba:70:37:73:4c:91:6b:cc:10:
                    8e:58:f2:e2:1b:1b:1e:72:3e:c6:bb:a5:ca:08:d8:
                    bb:23:bb:bf:86:02:de:11:e9:d9:79:6d:60:a6:c6:
                    0c:2c:e3:35:72:f1:76:bf:b5
                Exponent: 65537 (0x10001)
        X509v3 extensions:
            X509v3 Subject Alternative Name: 
                DNS:wyw-base.cdn.bcebos.com
    Signature Algorithm: sha256WithRSAEncryption
         c1:6f:cd:8a:e1:72:ee:b9:25:1f:0a:4c:20:98:f7:f6:3c:38:
         fc:96:35:79:7f:c2:de:20:74:fa:4c:c0:c5:27:f9:c9:66:99:
         3f:a6:bf:75:0d:66:2f:12:50:fb:0e:39:b7:17:e2:44:bb:81:
         21:fd:95:9a:05:d5:23:e2:b7:cf:b3:3a:56:c1:4d:9c:0f:66:
         b1:d1:2e:7f:97:a4:d3:6b:14:a3:6d:4d:27:4f:0e:ee:f5:ed:
         ab:95:96:cf:7a:95:fc:aa:e2:3d:9c:a8:bc:46:49:a8:f1:b6:
         6c:e6:b0:7a:e6:a9:98:be:76:8d:b3:86:a6:7c:c4:ae:cf:09:
         36:4c:9a:a8:2f:e9:70:dc:6c:63:9f:20:61:a9:94:25:43:b2:
         4a:9b:6c:f2:09:be:b5:d4:50:11:f6:8a:6e:3c:70:18:d1:af:
         c8:c2:63:fc:1f:83:ee:fb:db:b7:74:b2:d5:cd:5e:e8:5a:08:
         f0:ce:d4:9f:7e:e5:12:ec:77:6b:d4:c2:2d:7f:e1:96:51:f0:
         a3:b9:8b:bd:b3:bb:4e:a2:a3:a3:e6:3e:fb:45:73:d4:89:01:
         60:08:fc:b4:b0:e5:5a:19:f7:e5:e1:63:05:c1:be:3e:31:eb:
         8a:f0:33:4f:11:3a:cf:33:3f:b4:16:9d:75:23:86:87:23:01:
         85:e2:08:9f
-----BEGIN CERTIFICATE-----
MIIDeTCCAmGgAwIBAgIBLjANBgkqhkiG9w0BAQsFADCBrTELMAkGA1UEBhMCVVMx
EzARBgNVBAgMCkNhbGlmb3JuaWExFDASBgNVBAcMC0xvcyBBbmdlbGVzMRUwEwYD
VQQKDAxEaWdpQ2VydCBJbmMxGTAXBgNVBAsMEHd3dy5kaWdpY2VydC5jb20xIDAe
BgNVBAMMF0RpZ2lDZXJ0IEdsb2JhbCBSb290IENBMR8wHQYJKoZIhvcNAQkBFhB3
d3cuZGlnaWNlcnQuY29tMB4XDTI0MDMyMTA5MDc1NVoXDTM0MDMxOTA5MDc1NVow
ga0xCzAJBgNVBAYTAlVTMRMwEQYDVQQIDApDYWxpZm9ybmlhMRQwEgYDVQQHDAtM
b3MgQW5nZWxlczEVMBMGA1UECgwMRGlnaUNlcnQgSW5jMRkwFwYDVQQLDBB3d3cu
ZGlnaWNlcnQuY29tMSAwHgYDVQQDDBd3eXctYmFzZS5jZG4uYmNlYm9zLmNvbTEf
MB0GCSqGSIb3DQEJARYQd3d3LmRpZ2ljZXJ0LmNvbTCBnzANBgkqhkiG9w0BAQEF
AAOBjQAwgYkCgYEAuq1MCRo8hU9g1ZO8nhL0mxbni9IoKav5OJnhhDobcG6gW63z
TmVcGftWiRb7aDZDGju2Mk1jQ7DFEGk9lhN/quR01LNgqq9bx1b24UlV2ZK6cDdz
TJFrzBCOWPLiGxsecj7Gu6XKCNi7I7u/hgLeEenZeW1gpsYMLOM1cvF2v7UCAwEA
AaMmMCQwIgYDVR0RBBswGYIXd3l3LWJhc2UuY2RuLmJjZWJvcy5jb20wDQYJKoZI
hvcNAQELBQADggEBAMFvzYrhcu65JR8KTCCY9/Y8OPyWNXl/wt4gdPpMwMUn+clm
mT+mv3UNZi8SUPsOObcX4kS7gSH9lZoF1SPit8+zOlbBTZwPZrHRLn+XpNNrFKNt
TSdPDu717auVls96lfyq4j2cqLxGSajxtmzmsHrmqZi+do2zhqZ8xK7PCTZMmqgv
6XDcbGOfIGGplCVDskqbbPIJvrXUUBH2im48cBjRr8jCY/wfg+7727d0stXNXuha
CPDO1J9+5RLsd2vUwi1/4ZZR8KO5i72zu06io6PmPvtFc9SJAWAI/LSw5VoZ9+Xh
YwXBvj4x64rwM08ROs8zP7QWnXUjhocjAYXiCJ8=
-----END CERTIFICATE-----
