Certificate:
    Data:
        Version: 3 (0x2)
        Serial Number: 26 (0x1a)
        Signature Algorithm: sha256WithRSAEncryption
        Issuer: C=US, ST=California, L=Los Angeles, O=DigiCert Inc, OU=www.digicert.com, CN=DigiCert Global Root CA/emailAddress=www.digicert.com
        Validity
            Not Before: Mar 21 08:59:31 2024 GMT
            Not After : Mar 19 08:59:31 2034 GMT
        Subject: C=US, ST=California, L=Los Angeles, O=DigiCert Inc, OU=www.digicert.com, CN=zconfig.alibabausercontent.com/emailAddress=www.digicert.com
        Subject Public Key Info:
            Public Key Algorithm: rsaEncryption
                RSA Public-Key: (1024 bit)
                Modulus:
                    00:ba:ad:4c:09:1a:3c:85:4f:60:d5:93:bc:9e:12:
                    f4:9b:16:e7:8b:d2:28:29:ab:f9:38:99:e1:84:3a:
                    1b:70:6e:a0:5b:ad:f3:4e:65:5c:19:fb:56:89:16:
                    fb:68:36:43:1a:3b:b6:32:4d:63:43:b0:c5:10:69:
                    3d:96:13:7f:aa:e4:74:d4:b3:60:aa:af:5b:c7:56:
                    f6:e1:49:55:d9:92:ba:70:37:73:4c:91:6b:cc:10:
                    8e:58:f2:e2:1b:1b:1e:72:3e:c6:bb:a5:ca:08:d8:
                    bb:23:bb:bf:86:02:de:11:e9:d9:79:6d:60:a6:c6:
                    0c:2c:e3:35:72:f1:76:bf:b5
                Exponent: 65537 (0x10001)
        X509v3 extensions:
            X509v3 Subject Alternative Name: 
                DNS:zconfig.alibabausercontent.com
    Signature Algorithm: sha256WithRSAEncryption
         92:37:4a:3a:61:c3:3e:d8:27:80:1b:eb:11:a9:38:e4:3a:b5:
         09:8f:91:a9:cf:5d:d0:0b:5c:64:e2:23:c0:71:12:13:e6:e9:
         72:6f:5e:b9:4f:38:ac:2d:4b:b6:75:41:c5:91:06:8e:5d:36:
         7f:9e:9b:a3:f7:b8:c9:d6:97:2a:b2:43:ba:c7:3e:b0:26:8b:
         f2:25:1b:1b:43:28:f9:70:73:67:25:bd:4c:9b:28:12:ac:c6:
         08:f2:be:f7:ff:e8:62:c3:c3:5a:a3:1e:36:ea:70:80:f4:fe:
         10:c3:e7:ab:91:cd:bb:67:5e:3f:a9:0d:a7:cc:f7:25:de:4c:
         00:d0:61:5b:2c:8d:cc:83:dd:8d:43:e2:e8:37:17:02:d1:9d:
         b9:7b:6f:83:2e:32:56:a2:c4:16:4c:7f:13:f7:d4:7f:3e:73:
         87:82:4a:b4:7e:f3:79:72:3e:c2:6f:58:42:a4:c5:ee:3b:ea:
         c5:03:c9:3e:fc:41:11:e7:7f:e9:63:5a:0c:ec:d2:e7:33:61:
         18:ca:4e:c6:dc:6c:5b:c7:5f:48:dd:28:f5:fa:0f:86:0d:45:
         c4:27:58:b4:ff:e7:f6:c6:5f:91:4a:c7:6d:98:6e:fb:7f:98:
         12:a3:52:db:2f:10:5f:bc:de:b4:8c:3e:c4:73:16:3c:86:1f:
         7f:aa:5f:b4
-----BEGIN CERTIFICATE-----
MIIDhzCCAm+gAwIBAgIBGjANBgkqhkiG9w0BAQsFADCBrTELMAkGA1UEBhMCVVMx
EzARBgNVBAgMCkNhbGlmb3JuaWExFDASBgNVBAcMC0xvcyBBbmdlbGVzMRUwEwYD
VQQKDAxEaWdpQ2VydCBJbmMxGTAXBgNVBAsMEHd3dy5kaWdpY2VydC5jb20xIDAe
BgNVBAMMF0RpZ2lDZXJ0IEdsb2JhbCBSb290IENBMR8wHQYJKoZIhvcNAQkBFhB3
d3cuZGlnaWNlcnQuY29tMB4XDTI0MDMyMTA4NTkzMVoXDTM0MDMxOTA4NTkzMVow
gbQxCzAJBgNVBAYTAlVTMRMwEQYDVQQIDApDYWxpZm9ybmlhMRQwEgYDVQQHDAtM
b3MgQW5nZWxlczEVMBMGA1UECgwMRGlnaUNlcnQgSW5jMRkwFwYDVQQLDBB3d3cu
ZGlnaWNlcnQuY29tMScwJQYDVQQDDB56Y29uZmlnLmFsaWJhYmF1c2VyY29udGVu
dC5jb20xHzAdBgkqhkiG9w0BCQEWEHd3dy5kaWdpY2VydC5jb20wgZ8wDQYJKoZI
hvcNAQEBBQADgY0AMIGJAoGBALqtTAkaPIVPYNWTvJ4S9JsW54vSKCmr+TiZ4YQ6
G3BuoFut805lXBn7VokW+2g2Qxo7tjJNY0OwxRBpPZYTf6rkdNSzYKqvW8dW9uFJ
VdmSunA3c0yRa8wQjljy4hsbHnI+xrulygjYuyO7v4YC3hHp2XltYKbGDCzjNXLx
dr+1AgMBAAGjLTArMCkGA1UdEQQiMCCCHnpjb25maWcuYWxpYmFiYXVzZXJjb250
ZW50LmNvbTANBgkqhkiG9w0BAQsFAAOCAQEAkjdKOmHDPtgngBvrEak45Dq1CY+R
qc9d0AtcZOIjwHESE+bpcm9euU84rC1LtnVBxZEGjl02f56bo/e4ydaXKrJDusc+
sCaL8iUbG0Mo+XBzZyW9TJsoEqzGCPK+9//oYsPDWqMeNupwgPT+EMPnq5HNu2de
P6kNp8z3Jd5MANBhWyyNzIPdjUPi6DcXAtGduXtvgy4yVqLEFkx/E/fUfz5zh4JK
tH7zeXI+wm9YQqTF7jvqxQPJPvxBEed/6WNaDOzS5zNhGMpOxtxsW8dfSN0o9foP
hg1FxCdYtP/n9sZfkUrHbZhu+3+YEqNS2y8QX7zetIw+xHMWPIYff6pftA==
-----END CERTIFICATE-----
