Certificate:
    Data:
        Version: 3 (0x2)
        Serial Number: 53 (0x35)
        Signature Algorithm: sha256WithRSAEncryption
        Issuer: C=US, ST=California, L=Los Angeles, O=DigiCert Inc, OU=www.digicert.com, CN=DigiCert Global Root CA/emailAddress=www.digicert.com
        Validity
            Not Before: Mar 21 09:08:21 2024 GMT
            Not After : Mar 19 09:08:21 2034 GMT
        Subject: C=US, ST=California, L=Los Angeles, O=DigiCert Inc, OU=www.digicert.com, CN=zhihu-web-analytics.zhihu.com/emailAddress=www.digicert.com
        Subject Public Key Info:
            Public Key Algorithm: rsaEncryption
                RSA Public-Key: (1024 bit)
                Modulus:
                    00:ba:ad:4c:09:1a:3c:85:4f:60:d5:93:bc:9e:12:
                    f4:9b:16:e7:8b:d2:28:29:ab:f9:38:99:e1:84:3a:
                    1b:70:6e:a0:5b:ad:f3:4e:65:5c:19:fb:56:89:16:
                    fb:68:36:43:1a:3b:b6:32:4d:63:43:b0:c5:10:69:
                    3d:96:13:7f:aa:e4:74:d4:b3:60:aa:af:5b:c7:56:
                    f6:e1:49:55:d9:92:ba:70:37:73:4c:91:6b:cc:10:
                    8e:58:f2:e2:1b:1b:1e:72:3e:c6:bb:a5:ca:08:d8:
                    bb:23:bb:bf:86:02:de:11:e9:d9:79:6d:60:a6:c6:
                    0c:2c:e3:35:72:f1:76:bf:b5
                Exponent: 65537 (0x10001)
        X509v3 extensions:
            X509v3 Subject Alternative Name: 
                DNS:zhihu-web-analytics.zhihu.com
    Signature Algorithm: sha256WithRSAEncryption
         66:a8:1e:b9:b8:da:98:42:af:30:58:bf:f0:c6:bb:fb:70:43:
         7d:d9:06:42:73:2a:17:db:69:3f:17:7c:98:3d:ba:19:6d:a5:
         3c:63:2b:70:9f:a5:e1:d3:8d:08:fc:a5:f9:04:90:4b:51:4d:
         a1:d4:b7:c7:7a:85:07:25:78:99:74:a8:7b:a9:a3:55:42:1c:
         9b:80:9d:73:5a:6c:f8:9b:b7:01:d1:55:6c:fb:c0:d0:2b:08:
         d9:98:64:44:95:b9:05:3d:8a:64:86:25:88:55:70:ca:21:12:
         9c:3d:ff:08:b9:ef:d3:5b:86:37:12:60:7e:da:3d:56:86:04:
         ff:ab:5c:fd:ec:8f:e5:88:00:31:30:27:3a:f6:5e:6e:53:b2:
         22:80:9d:f9:5b:a8:26:23:4f:0f:ae:d1:32:2c:cc:55:a8:e5:
         cd:42:45:70:6a:29:25:b2:1c:ad:11:9c:b5:70:6a:b9:26:ab:
         e4:cf:c1:a4:3d:06:ef:c9:a1:fb:92:88:7a:f5:08:fe:f8:fb:
         53:24:65:23:62:de:1f:b2:60:23:ef:9d:33:08:78:ad:38:c0:
         9a:a2:7d:3a:60:8e:ee:c9:69:24:eb:a4:0a:8c:41:43:0b:80:
         5a:ed:03:40:54:d9:bc:08:40:3f:58:cb:8a:04:3b:30:79:ab:
         ca:dd:8e:e3
-----BEGIN CERTIFICATE-----
MIIDhTCCAm2gAwIBAgIBNTANBgkqhkiG9w0BAQsFADCBrTELMAkGA1UEBhMCVVMx
EzARBgNVBAgMCkNhbGlmb3JuaWExFDASBgNVBAcMC0xvcyBBbmdlbGVzMRUwEwYD
VQQKDAxEaWdpQ2VydCBJbmMxGTAXBgNVBAsMEHd3dy5kaWdpY2VydC5jb20xIDAe
BgNVBAMMF0RpZ2lDZXJ0IEdsb2JhbCBSb290IENBMR8wHQYJKoZIhvcNAQkBFhB3
d3cuZGlnaWNlcnQuY29tMB4XDTI0MDMyMTA5MDgyMVoXDTM0MDMxOTA5MDgyMVow
gbMxCzAJBgNVBAYTAlVTMRMwEQYDVQQIDApDYWxpZm9ybmlhMRQwEgYDVQQHDAtM
b3MgQW5nZWxlczEVMBMGA1UECgwMRGlnaUNlcnQgSW5jMRkwFwYDVQQLDBB3d3cu
ZGlnaWNlcnQuY29tMSYwJAYDVQQDDB16aGlodS13ZWItYW5hbHl0aWNzLnpoaWh1
LmNvbTEfMB0GCSqGSIb3DQEJARYQd3d3LmRpZ2ljZXJ0LmNvbTCBnzANBgkqhkiG
9w0BAQEFAAOBjQAwgYkCgYEAuq1MCRo8hU9g1ZO8nhL0mxbni9IoKav5OJnhhDob
cG6gW63zTmVcGftWiRb7aDZDGju2Mk1jQ7DFEGk9lhN/quR01LNgqq9bx1b24UlV
2ZK6cDdzTJFrzBCOWPLiGxsecj7Gu6XKCNi7I7u/hgLeEenZeW1gpsYMLOM1cvF2
v7UCAwEAAaMsMCowKAYDVR0RBCEwH4IdemhpaHUtd2ViLWFuYWx5dGljcy56aGlo
dS5jb20wDQYJKoZIhvcNAQELBQADggEBAGaoHrm42phCrzBYv/DGu/twQ33ZBkJz
KhfbaT8XfJg9uhltpTxjK3CfpeHTjQj8pfkEkEtRTaHUt8d6hQcleJl0qHupo1VC
HJuAnXNabPibtwHRVWz7wNArCNmYZESVuQU9imSGJYhVcMohEpw9/wi579NbhjcS
YH7aPVaGBP+rXP3sj+WIADEwJzr2Xm5TsiKAnflbqCYjTw+u0TIszFWo5c1CRXBq
KSWyHK0RnLVwarkmq+TPwaQ9Bu/JofuSiHr1CP74+1MkZSNi3h+yYCPvnTMIeK04
wJqifTpgju7JaSTrpAqMQUMLgFrtA0BU2bwIQD9Yy4oEOzB5q8rdjuM=
-----END CERTIFICATE-----
